(lp0
F0.0013769572836148884
aF0.0018458962617273916
aF0.0013769572836148884
aF0.0018458962617273979
aF0.0006810570242425329
aF2.8236622067216435e-05
aF0.0006810570242425569
aF0.0001533093624451072
aF0.00015330936244526495
aF0.0009491257422070855
aF0.0007219179227939363
aF0.0014033777430628057
aF7.53866759970798e-06
aF3.292719114039513e-05
aF0.0009491257422072907
aF0.0013051941651506902
aF0.0017086412870075515
aF0.00014384785845953586
aF0.0007219179227925028
aF0.0014033777430631277
aF0.0029289569012161294
aF0.003053343159456077
aF0.001305194165150918
aF0.0017086412870082053
aF0.0030486958927716055
aF0.0011920123020804716
aF0.003976637582315769
aF0.002947988993985439
aF0.0029289569012375233
aF0.0030533431594399964
aF0.003048695892770913
aF0.001192012302082155
aF0.0008271327394168007
aF0.0039766375823158204
aF0.0002861019909974441
aF0.00294798899398542
aF0.0004972934366382773
aF0.0006887286070269469
aF0.0026460518360114133
aF0.000658015492999752
aF0.0017320114174094981
aF0.0008271327394169086
aF0.0001557816064809975
aF0.00028610199099754783
aF0.0004972934366384868
aF0.0006887286070270107
aF0.0026460518360107805
aF0.0006580154930025865
aF0.0012046667280121983
aF0.0006709643972193944
aF0.00020883486254119382
aF0.0017320114174095961
aF1.44625683841475e-06
aF7.705116099392441e-05
aF0.00016186903357302273
aF1.7344603971973144e-05
aF0.0012046667280120726
aF0.0001073790266638426
aF0.0019054349243406335
aF0.0005293798256954132
aF0.00015578160647857585
aF0.0006709643972196912
aF8.16739452264606e-05
aF0.00046056100401504124
aF0.0008384252858622431
aF0.00015877067641520805
aF0.00020883486254116525
aF0.00014766270982812432
aF0.0001933065664099812
aF0.0016481774553082878
aF0.0003093431857895459
aF9.182614644979894e-07
aF7.70511609941311e-05
aF0.00016186903357328305
aF1.7344603971878805e-05
aF0.00010737902666494029
aF0.0019054349243406007
aF0.0005293798256954432
aF0.0006254231381073001
aF0.0028161109376416043
aF8.167394522640283e-05
aF0.00015877067641520643
aF0.0008384252858619144
aF0.0006254138278013097
aF0.0001476627098286204
aF0.0016481774553082946
aF1.170477704301897e-05
aF0.00034543896762645915
aF0.0003313665694759934
aF0.0003093431857903695
aF0.00019330656641166849
aF2.7636452039661794e-06
aF0.00046056100401445035
aF6.963470737598544e-05
aF2.6513692474472597e-06
aF3.175170203852719e-06
aF2.080121421622663e-06
aF0.0004311027863423113
aF0.0006374287709419991
aF0.0003449132006483628
aF0.0003279026310058547
aF0.0011001267047071092
aF0.00013485791721541362
aF1.629346401511712e-05
aF4.3909645945864244e-05
aF1.8528245973621714e-06
aF6.963470737778072e-05
aF0.00033136656947620484
aF0.0003454389676258366
aF0.0028161109376416108
aF0.0004311027863429302
aF0.00036114021964047825
aF0.0005928327684020588
aF0.00044989557652742407
aF0.0007760826484086578
aF0.0011656085823447521
aF0.003775170598434069
aF0.000594235669148444
aF0.00033351975898877553
aF0.0011362936792827882
aF0.0013303626959369945
aF0.001392877003493876
aF0.001386860228481962
aF0.0003449132006502253
aF0.0003279026310074204
aF0.0011001267047055568
aF0.0001348579172160519
aF0.0006374287709416632
aF0.00019382772673896722
aF0.00036114021963982594
aF0.0005928327684017764
aF0.0004498955765271886
aF2.026785351743661e-17
aF9.357738867710918e-05
aF0.0016013434597112917
aF0.001941122949591674
aF5.626112834032719e-05
aF0.0013847493916116257
aF0.00031354362082309346
aF3.236805404617897e-05
aF0.0005414243887056335
aF0.00019930265693881994
aF0.0006039649757139564
aF4.2781430036000356e-05
aF0.000776082648410495
aF0.0002443671709167064
aF0.0011656085823431455
aF0.0037751705984343967
aF0.000594235669138169
aF0.00033351975899981797
aF0.0013928770035292939
aF0.0013868602284477995
aF0.0013303626959345822
aF0.0018062301608409964
aF0.0015232718398545233
aF0.0014764444639312733
aF7.791908297733159e-05
aF0.001339007270477563
aF0.0005620223670609739
aF0.002870145253530079
aF0.00029936019856909637
aF7.444436498365477e-05
aF0.0026693432018350545
aF0.003494460920539618
aF0.00012651406226773165
aF0.00037569229532182635
aF0.00019595053837824646
aF1.622296749961822e-16
aF9.357738867693076e-05
aF0.0013847493916104622
aF0.0003135436208238275
aF0.0005414243887044908
aF0.0006039649757158372
aF0.0001993026569383621
aF3.23680540463077e-05
aF0.0016013434597170037
aF0.0019411229495877478
aF5.62611283397632e-05
aF1.6050729271271066e-16
aF0.0018062301608386515
aF0.0015232718398537127
aF0.0014764444639350808
aF7.79190829706124e-05
aF0.0026693432018284795
aF0.0013390072704810216
aF0.002870145253529036
aF0.00029936019857435345
aF7.444436498294264e-05
aF0.0005620223670579499
aF0.0005957416271328544
aF0.00022587585251077663
aF0.005990213105075013
aF0.0015030049279051551
aF0.00012995050078339746
aF0.006244604077432981
aF0.0007832382271971335
aF0.001158096389815826
aF0.006235099629700883
aF0.000312827698500764
aF0.0024378671158748156
aF0.0013284235793856703
aF0.001077073267083391
aF0.0012018642721170205
aF0.0001362895715071496
aF0.0031363187053646403
aF0.001136293139848631
aF5.340920297010853e-05
aF7.816487388849541e-05
aF0.003494460920541195
aF0.008132897602455127
aF0.0014100061909587385
aF7.590933497539067e-05
aF0.0002988774825853463
aF0.0026563854842814247
aF0.0007751866270589868
aF0.00012651406226924406
aF0.00037569229532005596
aF0.00019595053837770417
aF0.004206739817653839
aF0.006029136959288679
aF0.0024170359192268345
aF0.0025196820366664365
aF0.0015521076462389127
aF0.00047182619798372117
aF0.000786697604769287
aF5.4198415373707616e-05
aF0.0025158470158999913
aF1.8312999531188127e-05
aF0.0024378671158762862
aF0.006235099629699859
aF0.0011580963898221333
aF0.0005957416271305981
aF0.00022587585251250588
aF0.005990213105070361
aF0.0015030049279082052
aF0.0062446040773775045
aF0.0007832382270979952
aF0.00012995050076664884
aF0.004206739817650204
aF0.00813289760245774
aF0.0003128276985057477
aF0.0014100061909621863
aF0.0012018642721235403
aF7.590933497873382e-05
aF0.0013284235793846802
aF0.00013628957150647934
aF0.0010770732670801145
aF0.0002988774825918751
aF0.0003493872395634139
aF0.0016916265902626362
aF0.00098367324836823
aF0.0031982539611537814
aF0.0016452283553839695
aF0.0021630278659114034
aF0.0005851270447572521
aF0.0002155707494348081
aF0.0005471721606184726
aF0.001017049332466893
aF0.003281603723915154
aF0.0005601864743001602
aF0.0003047590096054788
aF5.989121135334291e-05
aF0.0031374835768768635
aF0.00011515126238021445
aF7.913668518422574e-06
aF0.0024170359192202005
aF0.0014085666900526305
aF0.006029136959289079
aF0.002519682036667417
aF0.00155210764623743
aF0.0007866976047741254
aF0.003947199821203743
aF0.002974496659513501
aF0.0013457531682667394
aF0.0054116243151653
aF0.0024327415965062164
aF0.00047182619798349153
aF0.0003926786922018584
aF0.0016178124138984836
aF0.0009419252843166599
aF0.0033708021405583766
aF0.00013357768023113294
aF0.00018646601082627037
aF0.0014317960404745815
aF0.0038939400253288413
aF1.8312999531008773e-05
aF0.002515847015905684
aF0.00034938723955486633
aF0.0016916265903993656
aF0.0009836732482095707
aF0.0002699080230580324
aF0.0004849454495000467
aF5.2105416736861196e-05
aF0.0006825670737265548
aF7.352259904981681e-05
aF0.0007509645586678978
aF0.0014995967175569246
aF0.006030269332527472
aF0.0015695909433328114
aF0.0003133412706264461
aF0.0012402986084925761
aF0.0005294315458247243
aF0.003947199821203257
aF0.000392678692204779
aF0.0016178124138911502
aF0.0009419252843298693
aF0.0005851270447462236
aF0.00216302786591588
aF0.00021557074942074063
aF0.0005471721606120158
aF0.003198253961159077
aF0.0014085666900476939
aF0.001645228355386103
aF0.005411624315167481
aF0.002432741596494355
aF0.0010170493324651506
aF0.003370802140560288
aF0.00013357768022917609
aF0.0032816037239139554
aF0.0013457531682494945
aF0.0029744966595178714
aF0.0014317960404760216
aF0.00018646601082672524
aF0.0038939400253262747
aF5.210541673528294e-05
aF0.0010826714343642387
aF0.0004103768472087341
aF0.0002770739061789678
aF0.0066750011232886795
aF0.006958473513507925
aF0.003542256796686186
aF0.0008654683658347106
aF0.0005309911399310499
aF0.002463747560901033
aF0.006718374667164556
aF0.0005709350895355345
aF6.722865572216863e-05
aF0.001429291706776885
aF0.00020919159947417238
aF0.000293697314156538
aF0.00013187074111907282
aF0.0002699080230540444
aF0.0006825670737270797
aF4.0857479207287694e-05
aF0.003896937250890898
aF0.0004996889944488485
aF7.352259905398497e-05
aF0.00048494544949971964
aF0.0014995967175569884
aF0.00016403364487688763
aF0.000652017484609269
aF0.0009941159431560713
aF0.0004876249181920571
aF0.00024044982423722014
aF0.001372235871273034
aF0.0021835767979797374
aF0.0027165587353242086
aF0.0005430080180829097
aF0.00030475900957091024
aF5.989121134382022e-05
aF0.006030269332527534
aF0.00031334127063531984
aF0.0015695909433245093
aF0.0005294315449245495
aF0.0012402986088550193
aF0.0007509645586624247
aF0.0002770739061789476
aF0.0004103768472203786
aF0.006675001123351442
aF0.0035422567966541347
aF0.006958473513454493
aF0.0002360972906691534
aF0.00018116746226293546
aF6.832937760363341e-05
aF0.009062632610921757
aF0.0012421892528617822
aF0.0003861320968234748
aF0.0011915852869384678
aF0.001885009630014846
aF0.00033104959849687075
aF0.0011333161805491252
aF0.001082671434364809
aF0.0008654683658323634
aF0.0005309911399330325
aF0.0067183746671677785
aF0.0005709350895341857
aF2.2548040119029943e-05
aF0.0006951252227709983
aF0.00074861934702339
aF0.00043341341712337204
aF0.0001782558477750911
aF0.0005683531161089595
aF0.0006520174846049915
aF0.0009941159431587525
aF0.0004996889944473875
aF0.00048762491819702
aF0.002463747560903532
aF4.085747920603928e-05
aF0.001429291706764959
aF6.722865572564281e-05
aF0.0002936973141596257
aF0.00013187074112431873
aF0.0013722358712604816
aF0.009062632610922165
aF0.000557596235179973
aF1.8765794268820132e-05
aF3.616358286109063e-05
aF0.0005536937220700463
aF0.0002360972906742578
aF0.0002404498242311298
aF0.002716558735326251
aF0.0021835767979775443
aF0.0005430080180819798
aF0.00020919159947293373
aF0.0007486193470456158
aF0.00038613209684817344
aF0.0038969372508898398
aF0.0012421892528624494
aF0.0001640336448833686
aF0.0001811674622574801
aF0.001191585286901408
aF6.832937760219615e-05
aF0.0011333161805583245
aF2.254804012057076e-05
aF0.0018850096300081544
aF0.0006951252227915644
aF0.0003310495985334757
aF6.237073019545923e-05
aF0.006947882538120973
aF0.0005536937221128407
aF6.237073019755356e-05
aF0.0004334134171315623
aF0.00017825584778434543
aF0.0005683531161113772
aF0.00694788253812436
aF0.00012446247080806247
aF0.00012446247049042964
aF1.1305209416481713e-16
aF0.00010486338249601921
aF0.0012403108069035476
aF0.0013542444948265622
aF0.00022680486295961898
aF0.0026563854842801076
aF0.0002153671879706406
aF0.0007751866270634982
aF0.0006503366572735853
aF0.0027168512896070347
aF0.0008230272595526637
aF0.0025071543342435037
aF6.585305462425535e-05
aF0.0013542444948333057
aF0.00022680486293303345
aF4.903408347795151e-05
aF2.0166916336503346e-05
aF0.003073899726003866
aF0.001321461800803906
aF0.00049840441136197
aF0.00021536718797027932
aF0.0006503366572766084
aF0.0027168512896060685
aF0.00016446868180922418
aF0.0008230272595553666
aF1.7240033601480118e-16
aF0.00026108686562245533
aF0.0010496041160174283
aF0.0002729679304752379
aF0.00021430836776884025
aF0.0004900936398794831
aF0.0037561448449535267
aF0.00016198577108629571
aF0.0004903755860027566
aF6.585305462532098e-05
aF0.002507154334245019
aF4.903408348026366e-05
aF2.0166916330804247e-05
aF0.003073899726002329
aF0.0013214618007976941
aF0.0004984044113614049
aF0.0009618843521086119
aF0.003275018684664271
aF0.0012064400571094732
aF0.00016446868181439907
aF0.0002610868656279005
aF0.0010496041160141755
aF0.00027296793047640024
aF0.00021430836776996059
aF0.0004900936398815803
aF0.003756144844953606
aF0.00016198577108469202
aF0.0009618843521103283
aF0.0004903755860029646
aF0.0006033838100182207
aF0.004342426566634291
aF0.0009078473499813049
aF0.0007273468589829738
aF0.0004368552002549422
aF0.0032750186846678526
aF0.0012352107028284448
aF0.00036889446221644257
aF0.00039243661780434395
aF0.002249945501419386
aF0.0003365017772120636
aF1.0297488340995737e-15
aF0.001206440057111463
aF0.0006033838099934985
aF0.0007046328749062644
aF0.00238386703553188
aF0.0002801949303132346
aF0.0011993280986214592
aF0.004342426566633972
aF0.0010764912365106435
aF0.0012153126224941067
aF9.052534022384728e-05
aF0.00027432717532154053
aF0.0015724043778111872
aF0.0002676999377181765
aF0.0006826804747748005
aF0.0004076077005327551
aF0.00041926240116061964
aF0.0009078473499804636
aF0.00036889446221607616
aF0.0012352107028290663
aF0.000704632874909915
aF0.0023838670355320196
aF0.0007273468589809786
aF0.0004368552002574274
aF0.002249945501419307
aF0.00033650177720832353
aF0.00028019493031007913
aF0.0010764912365068546
aF0.001215312622497208
aF0.0003924366178070045
aF0.00029802039164221933
aF0.002745397776033851
aF0.0003800644827653196
aF0.00020231350694633888
aF0.00040760770052621065
aF0.0006826804747710937
aF0.0002676999377200804
aF0.0004192624011614184
aF0.0002743271753220322
aF0.0011993280986107896
aF0.0015724043778150342
aF9.052534022770992e-05
aF0.00038006448276454904
aF0.0027453977760327443
aF0.00017004196498723463
aF0.00015029076190708107
aF0.0006285371533715362
aF0.0008322074138004898
aF0.0015291068650712455
aF5.337990072539997e-05
aF0.00136011018429985
aF0.00029802039162837163
aF0.00017004196498841018
aF0.00015029076192282371
aF0.0015291068650638423
aF0.00020231350694766963
aF0.0006285371534329373
aF0.0008322074137696609
aF5.3379900725042456e-05
aF0.001360110184315128
aF0.0007385929357871001
aF0.0001163946532933681
aF0.0007385929357870572
aF0.00011639465328958115
aF4.207565708200961e-15
aF3.884674472296088e-15
aF1.3448673185403978e-14
aF2.0518906611771684e-14
aF9.014682790986821e-15
aF5.9985950033857825e-15
aF3.077216457089476e-16
aF0.00011885587330833456
aF9.050662419901701e-05
aF0.00023399423111920638
aF0.0009877356149955554
aF1.5656904545748257e-16
aF0.0009158876243707325
aF0.003649411634553881
aF0.00017997029181339642
aF0.0009649645145987187
aF0.0006705267684857894
aF5.5167283706501436e-05
aF0.0012403108069036733
aF0.00017997029181626587
aF0.0009649645145988825
aF0.0013492532947435663
aF0.0008025993724551311
aF0.0004475637024728678
aF3.544976092809879e-05
aF0.0008025993724515563
aF0.0013492532947453483
aF0.0008030944556202441
aF0.000670526768485253
aF0.000803094455620183
aF0.000389360754227761
aF0.0010962426609922315
aF0.00018736967959281654
aF0.00046414536544279593
aF0.003649411634553769
aF0.0010962426609924787
aF5.5167283706520145e-05
aF0.0001873696795922891
aF0.0004641453654415639
aF0.002928265486550771
aF0.00021593276221583695
aF0.0032630183716863756
aF0.0004742036444672531
aF0.0001469223982339157
aF0.0013764172800380947
aF0.0032630183716861275
aF0.0004475637024736838
aF0.0009158876243719183
aF3.544976092844769e-05
aF0.00021593276221402015
aF0.001376417280036586
aF0.00045420451848717566
aF0.0003893607542277858
aF0.0004023981854790356
aF0.0005404415446846741
aF0.0006408359866392681
aF0.0006114663406434767
aF0.00019043334440408676
aF0.00040239818547935295
aF0.000540441544686142
aF0.0006408359866398074
aF0.00045420451848089146
aF0.003425301197831463
aF0.00024175244096165193
aF0.0002214843108494214
aF4.442557386845625e-05
aF0.0006114663406430778
aF0.00019043334440419716
aF0.000196860883072361
aF8.09656605450561e-05
aF4.439818685100766e-05
aF0.0001968608830713197
aF0.00047420364446741333
aF0.003425301197831415
aF0.000241752440959722
aF0.002928265486552187
aF0.00014692239822115209
aF0.00022148431085481043
aF4.442557384459075e-05
aF4.439818684641948e-05
aF8.096566054561167e-05
aF0.00017835874723292057
aF0.000364563409917158
aF0.0008864038695956433
aF0.00014232286497842096
aF0.00036456340991649337
aF0.0008864038695983407
aF0.0008095228999307584
aF0.0009972755741431561
aF0.0011815477576365685
aF0.0006514733300226308
aF0.0008095228999333944
aF0.00017835874723318946
aF0.0001423228649574036
aF0.000357661731592551
aF0.00017824879452173016
aF0.00014710041882574259
aF0.00036849999703091605
aF0.0030274357676360803
aF0.00024571060728161335
aF0.00023878873167652544
aF4.7433112969140097e-05
aF8.108214692128767e-05
aF0.0010752771405414946
aF7.661485923633232e-16
aF0.0009972755741414292
aF0.00017824879452145947
aF0.0003576617315938342
aF0.00036849999703041715
aF0.0001471004188246985
aF0.0006514733300228111
aF0.0011815477576354494
aF0.00023878873167847394
aF4.7433112973250524e-05
aF0.0002457106072959164
aF0.003027435767634256
aF8.108214686432263e-05
aF3.1418096243836375e-17
aF0.001075277140547793
aF5.067568881551796e-16
aF7.110934279653153e-05
aF9.415151041311561e-05
aF4.670679317087686e-17
aF1.3748270046300979e-18
aF7.11093427941669e-05
aF9.41515103865108e-05
aF1.2666373149273326e-15
aF5.24996445260904e-15
aF6.001083526701945e-20
aF1.920990812325242e-16
aF0.00040623949900168657
aF0.0001919526898042887
aF0.0003779972652173641
aF3.4349615337669713e-16
aF0.0003779972652349447
aF7.337413122038482e-05
aF0.00040623949900568467
aF0.00019195268980324665
aF0.0002585757085586748
aF0.00028548811403830227
aF2.9537976119209626e-05
aF2.565949309237063e-05
aF0.0003240465926215306
aF0.0008574626444102065
aF0.00011858837059745433
aF2.9537976118759642e-05
aF0.0002854881140585195
aF7.337413122030215e-05
aF0.0009877356149973202
aF0.0002585757085562499
aF2.5659493091836598e-05
aF0.0003240465926223565
aF0.0008574626444111677
aF0.00011858837057231683
aF0.0011112819295401788
aF0.0005824964836536626
aF0.0003238468278109553
aF2.0360879390378e-05
aF0.0011112819295411554
aF0.0005824964836522125
aF0.00032384682781091956
aF2.0360879389495012e-05
aF2.442948157467188e-05
aF0.0017020051590090229
aF0.0012854649692791644
aF0.0006555748991154218
aF0.0006546009941953697
aF0.00034598402003342113
aF0.000655574899115946
aF0.0006546009941953131
aF0.00034598402003327633
aF2.4429481575435558e-05
aF0.0017020051589395908
aF0.0012854649693653179
aF0.0013387699396931174
aF0.0018448773568692737
aF0.0007140949504914121
aF0.0013387699396930598
aF0.0018448773568697514
aF0.000894902451613328
aF0.0005339668751544099
aF0.0007140949504909876
aF8.174437886335038e-05
aF0.00010301712831323414
aF0.00010361864320550855
aF0.00017632524766202044
aF7.251968966529147e-05
aF0.0008397999619550784
aF0.0010650077966463413
aF0.0003830223720778817
aF0.0008943507716295948
aF9.807890705488463e-05
aF0.0006867548001376083
aF0.0005186818815240307
aF0.00019838007101619963
aF0.00041600568742876967
aF0.0010650077966464656
aF0.00038302237207744785
aF0.00010361864320482187
aF0.00017632524766202667
aF7.251968966631833e-05
aF0.00010301712831405477
aF0.0005339668751554329
aF0.0008949024516128119
aF0.0008943507716294384
aF9.807890705459125e-05
aF8.174437886296854e-05
aF0.0006867548001582314
aF0.0005186818814881271
aF0.00019838007101686162
aF0.00041600568742829403
aF0.0009216043691495247
aF8.784775983442837e-05
aF8.784775983460215e-05
aF0.0009216043691494779
aF0.0027594515866161224
aF0.0009125303484261732
aF0.0009492559107184027
aF0.0006680350693209207
aF0.00030409383241173174
aF9.227084822425437e-05
aF0.00030409383241162847
aF0.0006680350693214008
aF0.0009492559107178729
aF0.000912530348426586
aF0.0027594515866161415
aF0.00029732658170939386
aF9.227084822452059e-05
aF0.00029732658170225716
aF0.0020872792354719415
aF0.00012747638850660892
aF2.7015284112912336e-05
aF0.0002154542909062829
aF0.00046385437140706996
aF0.0009554858924562479
aF0.0020872792354725274
aF0.00012747638850717574
aF0.00021545429090508546
aF0.0004638543714061559
aF2.7015284113718762e-05
aF0.0009554858924567906
aF0.0004416190833993819
aF0.00015975317080638198
aF9.158510531353927e-05
aF0.00019705340878558292
aF0.0004921040079996974
aF0.0016556114847285361
aF9.559609228696256e-05
aF0.00015965468786425513
aF0.00010846032616702635
aF0.00036806973844399075
aF0.0018965746541532978
aF0.00019705340878549597
aF0.0004921040080013174
aF0.0004883634133479934
aF0.00044161908339920955
aF0.00015975317080613223
aF9.158510531401083e-05
aF9.559609226167804e-05
aF0.00015965468786392604
aF0.00010846032616655447
aF0.0018731453672047801
aF0.0003680697384456588
aF0.0018965746540955408
aF0.0016556114847278516
aF0.0018731453672052756
aF0.0014324165040127468
aF0.0016966585688357359
aF0.0007558094436840135
aF0.0004883634133477547
aF0.0001062177690485197
aF0.0004101466633097599
aF0.0004101466633101768
aF0.0016966585688358395
aF0.00014851521356445152
aF0.00018716407201638022
aF0.0014324165040791273
aF0.00021081965372172161
aF0.00010621776904942164
aF7.405806679176824e-05
aF0.0007558094436831149
aF0.00015264732487039274
aF4.169012518076416e-05
aF0.00018716407201555937
aF0.00014851521356462998
aF7.405806679212084e-05
aF0.00021081965372107554
aF0.0007536449274836465
aF0.0001526473248706096
aF0.0005950087966776454
aF0.0005168811853468137
aF4.169012518219237e-05
aF0.0005950087966778043
aF3.332729374818318e-05
aF0.0005168811853435324
aF0.0007536449274837306
aF0.0006128448834317122
aF3.332729374838368e-05
aF0.0006128448834314663
aF0.0003023388912049745
aF8.301158046767231e-06
aF0.00016737653234149275
aF0.0014743949111111795
aF0.00017819218923828772
aF0.0003676937230140781
aF0.00033856630308802787
aF0.0002557072874514528
aF8.301158047569993e-06
aF0.0003023388912126433
aF0.00016737653234157968
aF0.0014743949111116772
aF0.00017819218923760603
aF0.00036769372301294725
aF0.00033856630307859
aF0.0002557072874644478
aF5.2510932278202964e-05
aF0.00017056820070999204
aF5.251093227755487e-05
aF0.0001705682007082766
aF0.000928910504374679
aF6.054985330340109e-05
aF0.00037260985890053754
aF0.00015006252984510528
aF7.321717561909948e-05
aF0.0008397999619001209
aF0.00037260985890078007
aF7.32171756291002e-05
aF4.3420739672096225e-05
aF0.0011134317736967718
aF0.0005441920471803565
aF6.054985330346439e-05
aF4.342073967210658e-05
aF0.00015006252984580063
aF0.0011134317737503067
aF0.0005441920471805391
aF0.003074906037127334
aF0.0005401903029259656
aF0.001057772763544616
aF0.00016680518020941864
aF9.714623634301758e-05
aF1.0815232260008139e-05
aF0.00019551020530499076
aF0.00016721734898606205
aF0.00014991657081575457
aF0.00032933757973156546
aF0.00019195090555556822
aF0.0006696855074967847
aF1.0815232262843443e-05
aF0.00019551020530533347
aF0.0030749060371274618
aF0.000540190302923543
aF0.00016721734898596027
aF0.00014991657081673133
aF0.0010577727635428
aF0.00016680518022027445
aF9.714623633439991e-05
aF0.0003293375797306977
aF0.00019195090555734735
aF0.0006696855074968846
aF0.0001888279025997267
aF3.4205010376308294e-05
aF0.0016728757031529656
aF8.005338780559889e-05
aF0.00129749641549589
aF0.0007706399731578266
aF0.0014918151816291486
aF0.0007340494398598013
aF0.0005489156817897261
aF0.0016728757031532922
aF3.4205010378041846e-05
aF0.00018882790259897622
aF0.0007706399731538761
aF0.001491815181630083
aF0.003015387394358954
aF0.0001373254697727065
aF7.888787602540809e-05
aF2.985074145930478e-05
aF0.00010323881890334675
aF0.0032156245465845093
aF0.0006057528063637209
aF0.0002667070327825373
aF0.00014064381512318203
aF0.00012735015013045392
aF0.00038847138906893076
aF0.00043327630407603965
aF8.005338780618085e-05
aF0.0012974964154955258
aF0.00038847138906867077
aF0.0001406438151232167
aF0.0002667070327821508
aF0.0001273501501302319
aF0.0005489156817900289
aF0.0007340494398595219
aF7.888787602614948e-05
aF0.00013732546977209543
aF0.003015387394359013
aF2.9850741459117815e-05
aF0.00010323881890227234
aF0.00010426540523406299
aF0.0006057528063632905
aF0.0032156245465843627
aF0.00010426540523412392
aF0.0034699542316936694
aF0.00043327630407587734
aF0.0034699542316956066
aF0.0015012554717247486
aF0.001494034680467113
aF0.0003712440209064889
aF0.0007141560518653104
aF0.00037493559778474116
aF0.002427119441735822
aF0.0015723022774438039
aF0.0018662791690858007
aF0.0038666317855859103
aF0.0018848370788373883
aF0.0014001178036607775
aF0.00041860229237439966
aF0.0033600998648296173
aF0.0006183342566619495
aF0.001216701228278025
aF0.00024949631711586524
aF0.0004837376210471153
aF0.00041448077776774696
aF0.001501255471725487
aF0.0003712440209058688
aF0.0007141560518649609
aF0.001494034680466617
aF0.0003749355977878879
aF0.0015723022774451838
aF0.0014001178036619321
aF0.00041860229236980704
aF0.0006183342566617533
aF0.0012167012282782248
aF0.0004144807777674537
aF0.0018662791690877282
aF0.0033600998648287083
aF0.003866631785582968
aF0.0018848370788469028
aF0.0002494963171153085
aF0.0004837376210480515
aF0.0021003075179309694
aF0.0002977689394528683
aF7.416824920288298e-05
aF0.0024271194417356725
aF0.00026631081979435926
aF0.0002977689394532103
aF0.00021786050297959445
aF0.0021003075179313766
aF7.416824920270628e-05
aF3.889128483508473e-05
aF0.0007605270199194684
aF0.0021781213843731447
aF0.0011256509722324818
aF0.002079628108651754
aF0.0020796281086522127
aF0.0002663108197910438
aF0.0002178605029815198
aF0.000540993989447031
aF0.0007605270199183845
aF0.0011256509722318434
aF3.889128483242156e-05
aF0.0021781213843735823
aF0.0007530389500235236
aF0.0006890208721106366
aF0.00012048930453453582
aF0.0005409939894477461
aF0.0006890208721175246
aF0.0013407617402580556
aF0.0001230002989432434
aF0.0005998269494803619
aF0.00046725497715609433
aF0.00012048930453374194
aF0.00012300029894185872
aF0.0013407617402608192
aF0.0007530389500133932
aF0.00069025030267319
aF8.304644039345519e-05
aF0.0008788664993788055
aF0.00070759377771299
aF0.0003334128922714083
aF0.0001778818976924178
aF0.0005998269494797083
aF0.0004672549771553648
aF0.00017788189769302537
aF0.0003334128922722486
aF0.0006902503026714205
aF8.304644039360294e-05
aF0.000878866499341783
aF0.0007075937777534102
aF0.0006396585281402842
aF0.0014471491602123712
aF0.0009289105043744386
aF0.0006396585281404848
aF0.0014471491602125394
aF0.0002986327699314597
aF0.000511282382300047
aF0.0005112823822999309
aF0.0023021469529894674
aF0.00029863276993155976
aF0.00031940501830696573
aF0.002302146952989209
aF0.00031940501830720155
aF0.00032139645525974705
aF0.0005342165500118204
aF0.0003213964552599914
aF0.0005342165500116675
aF0.00021223207171210297
aF0.000212232071712052
aF0.0035832276889306894
aF0.003583227688930384
aF5.286273716941999e-05
aF5.286273717038473e-05
aF3.424560334408966e-16
aF9.695138109707777e-16
aF1.897471242649781e-15
aF1.613489519533507e-14
aF0.0005839210457754073
aF0.0009556155935225172
aF0.0005839210457756951
aF0.0009556155935222747
aF0.001612584076830115
aF1.5911691467747532e-05
aF0.0025653233412149686
aF0.0003855884880910681
aF4.394958201030942e-05
aF0.0016125840768303518
aF1.591169146794153e-05
aF0.002565323341214926
aF0.0003855884880910183
aF4.394958201048657e-05
aF6.38818840173236e-05
aF0.0001764477463784737
aF6.38818840172995e-05
aF0.00017644774637843227
aF0.0010648594713331295
aF0.00045794772063283086
aF0.00028786983318828134
aF3.613578101675385e-05
aF0.0002876404306756333
aF0.0007944898078806641
aF0.0001450770822457847
aF6.043841254911144e-05
aF0.00024264671473872825
aF0.0003205746389041405
aF0.0010648594713331106
aF0.00045794772063119263
aF0.0002878698331883275
aF3.6135781016811444e-05
aF0.00028764043067576933
aF0.0007944898078806212
aF0.00014507708224579375
aF6.0438412549096664e-05
aF0.0002426467147389099
aF0.00032057463890412796
aF0.00019009298354544457
aF0.00011606219020407051
aF0.001217462800473971
aF0.0006532373780187975
aF0.0008853141394240864
aF0.000320522853561234
aF0.0010925633550590292
aF0.0002635796387819639
aF1.841290437296081e-05
aF0.0007279140417207555
aF0.0004408465653731974
aF0.00015804151690239113
aF0.000503389385081581
aF5.721801530422912e-05
aF0.00019009298354520806
aF0.00011606219020458647
aF0.0012174628004740053
aF0.0006532373780186884
aF0.0008853141394241928
aF0.000320522853561196
aF0.0010925633550589783
aF0.0002635796387820427
aF1.8412904373177108e-05
aF0.000727914041720767
aF0.0004408465653730258
aF0.00015804151690230353
aF0.0005033893850817791
aF5.721801530424337e-05
aF0.00012994329832233001
aF0.00012994329832235904
aF0.00021733490880952667
aF2.0831378412582277e-06
aF5.695079144901968e-05
aF8.363332725047154e-06
aF0.00021733490880953616
aF2.0831378412440704e-06
aF5.6950791449016826e-05
aF8.363332725067546e-06
aF3.7657509071921996e-05
aF0.00022864469571698285
aF1.5194710181189849e-05
aF3.765750907190039e-05
aF0.00022864469571701334
aF1.5194710181165968e-05
aF0.0010295165798460933
aF4.196243287968436e-05
aF0.0004154073501715131
aF0.001147208656258025
aF7.490907746544837e-06
aF0.0002047935169734187
aF0.0010295165798460662
aF4.196243287967768e-05
aF0.0004154073501715139
aF0.0011472086562580401
aF7.490907746611889e-06
aF0.0002047935169733547
aF0.0020114571407352753
aF0.003643293269774475
aF0.003643293269774475
aF0.0031327367708736437
aF0.0031327367708736437
aF0.005193721429304433
aF0.005193721429304433
aF0.0005802888694624767
aF0.0005802888694624767
aF0.0016224638679203888
aF0.0016224638679203888
aF0.0018264951101330362
aF0.0018264951101330362
aF0.00036623292311144956
aF0.00036623292311144956
aF0.0017949648021189225
aF0.0017949648021189225
aF0.00036178877622331245
aF0.00036178877622331245
aF0.00018269736697976998
aF0.00018269736697976998
aF5.8489999762019924e-05
aF5.8489999762019924e-05
aF0.0045686379442411995
aF0.0045686379442411995
aF0.0020691291222833443
aF0.0020691291222833443
aF3.5448978905944426e-05
aF3.5448978905944426e-05
aF0.0015020481939794677
aF0.0015020481939794677
aF0.0007883641011709239
aF0.0007883641011709239
aF0.00028489599930723295
aF0.00028489599930723295
aF0.001559365868711465
aF0.001559365868711465
aF0.0005443541493113706
aF0.0005443541493113706
aF0.0006612670787093384
aF0.0006612670787093384
aF0.0021389021551332845
aF0.0021389021551332845
aF0.00027263491355114614
aF0.0007789017456823705
aF0.0007789017456823705
aF9.042036089737595e-05
aF9.042036089737595e-05
aF0.0027332562092860667
aF0.0027332562092860667
aF0.0003646486612862072
aF0.0003646486612862072
aF0.0019697154301425213
aF0.0019697154301425213
aF0.0007555255602793927
aF0.0007555255602793927
aF0.00039082795607434334
aF0.00039082795607434334
aF0.0029228219895529395
aF0.0029228219895529395
aF0.0041992292576636565
aF0.0041992292576636565
aF0.0006448527783594835
aF0.0006448527783594835
aF0.0016185458809391616
aF0.0016185458809391616
aF0.0005572901609872438
aF0.0005572901609872438
aF0.003565431296765339
aF0.00010724518731530374
aF0.00010724518731530374
aF0.002302244060069731
aF0.002302244060069731
aF0.0009358149290138162
aF0.0009358149290138162
aF0.001019927275742838
aF0.001019927275742838
aF0.003726019109198653
aF0.003726019109198653
aF0.0036881318391973395
aF0.0036881318391973395
aF0.00047083992309815653
aF0.00047083992309815653
aF0.00026732654845168974
aF0.00026732654845168974
aF0.0004132545203351854
aF0.0004132545203351854
aF0.0026957570615792773
aF0.0026957570615792773
aF0.002568122822152433
aF0.002568122822152433
aF0.0004905399508236705
aF0.0004905399508236705
aF0.0037226917143351975
aF0.0037226917143351975
aF0.001478405817676829
aF0.001478405817676829
aF0.003353516092294916
aF0.003353516092294916
aF0.0009810944233184457
aF0.0009810944233184457
aF5.0884781321318756e-05
aF5.0884781321318756e-05
aF0.002066903747087481
aF0.002066903747087481
aF0.004026794882237007
aF0.004026794882237007
aF0.0016395882881800902
aF0.0016395882881800902
aF0.0005940929286140044
aF0.0005940929286140044
aF0.001552840027748239
aF0.001552840027748239
aF0.005303110044306319
aF0.005303110044306319
aF0.0052990860424813055
aF0.0052990860424813055
aF0.000933689994300839
aF0.000933689994300839
aF0.0017744261502711093
aF0.0017744261502711093
aF0.004329292034221663
aF0.004329292034221663
aF0.0031811297616796378
aF0.0031811297616796378
aF0.0007865781226704412
aF0.0007865781226704412
aF0.0028938717233879968
aF0.0028938717233879968
aF0.0008313280594683264
aF0.0008313280594683264
aF9.842891388695317e-05
aF9.842891388695317e-05
aF0.0021288091863875314
aF0.0021288091863875314
aF0.0011582851162866652
aF0.0011582851162866652
aF0.0012483468054417237
aF0.0012483468054417237
aF0.0007907761246283922
aF0.0007907761246283922
aF0.0013790544133981287
aF0.0013790544133981287
aF0.004100032752662778
aF0.004100032752662778
aF0.005391006778420851
aF0.005391006778420851
aF0.003464964605381669
aF0.003464964605381669
aF0.0037480770550338783
aF0.0037480770550338783
aF0.0006933320716439807
aF0.0006933320716439807
aF0.004403317487970162
aF0.004403317487970162
aF0.0012257446945720916
aF0.0012257446945720916
aF0.0016889824710261418
aF0.0016889824710261418
aF0.0005015221406133821
aF0.0005015221406133821
aF0.0025167869800685606
aF0.0025167869800685606
aF0.004970769573160152
aF0.004970769573160152
aF0.0004383571135011725
aF0.0004383571135011725
aF0.002259624824977051
aF0.002259624824977051
aF0.00010948081975357126
aF0.00010948081975357126
aF0.0044822188732906824
aF0.0044822188732906824
aF0.0038072786323167913
aF0.0038072786323167913
aF0.0004291059113579627
aF0.0004291059113579627
aF0.0038281394049345155
aF0.0038281394049345155
aF0.004109416507607562
aF0.004109416507607562
aF0.0021008221735642854
aF0.0021008221735642854
aF0.001494357579699746
aF0.001494357579699746
aF0.0015877338838515378
aF0.0015877338838515378
aF0.004294564289559221
aF0.004294564289559221
aF0.002704484916265644
aF0.002704484916265644
aF0.0009305296823783618
aF0.0009305296823783618
aF0.0016399498561559033
aF0.0016399498561559033
aF0.0042138903749998746
aF0.0042138903749998746
aF0.0005258036417668765
aF0.0005258036417668765
aF0.0035669631845928512
aF0.0035669631845928512
aF0.003040898222889294
aF0.0028428445742691723
aF0.0028428445742691723
aF0.0023774135008779976
aF0.0023774135008779976
aF0.004767878364532349
aF0.004767878364532349
aF0.00044938625405521894
aF0.00044938625405521894
aF0.001623737802366078
aF0.001623737802366078
aF0.001975887590001162
aF0.001975887590001162
aF0.0030375779562865904
aF0.0030375779562865904
aF0.0029356897332147016
aF0.0029356897332147016
aF0.002353253016272305
aF0.002353253016272305
aF0.0013091235142840758
aF0.0013091235142840758
aF0.0007890368886514808
aF0.0007890368886514808
aF0.0012058612710178747
aF0.0012058612710178747
aF0.003442839283244761
aF0.003442839283244761
aF0.004221644255499402
aF0.004221644255499402
aF0.004909472551239539
aF0.004909472551239539
aF0.0026178718390059454
aF0.0026178718390059454
aF0.0026982671096920435
aF0.0026982671096920435
aF0.004730745607124609
aF0.004730745607124609
aF0.0017085440521971299
aF0.0017085440521971299
aF0.0033969370145623267
aF0.0033969370145623267
aF0.002871978596626627
aF0.002871978596626627
aF0.0005024031878389956
aF0.0005024031878389956
aF0.0015608068080323614
aF0.0015608068080323614
aF0.0007607017186006807
aF0.0007607017186006807
aF0.001007736841923287
aF0.001007736841923287
aF0.0026309672133883653
aF0.0026309672133883653
aF0.0012544335178375058
aF0.0012544335178375058
aF0.0027584099021515742
aF0.0027584099021515742
aF0.004682065180913336
aF0.004682065180913336
aF0.004254707403235307
aF0.004254707403235307
aF0.0016060070228144608
aF0.0016060070228144608
aF0.0019050745011492355
aF0.0019050745011492355
aF0.0012349614353118067
aF0.0012349614353118067
aF0.0023642608830714835
aF0.0023642608830714835
aF0.0017430394994486947
aF0.0017430394994486947
aF0.005544385152136575
aF0.005544385152136575
aF0.0007551656370826237
aF0.0007551656370826237
aF0.0016254090477584014
aF0.0016254090477584014
aF0.0036646632034331873
aF0.0036646632034331873
aF0.0013614126827352138
aF0.0013614126827352138
aF0.0060863040988683535
aF0.0060863040988683535
aF0.0020052762880539013
aF0.0020052762880539013
aF0.0037754149671072614
aF0.0037754149671072614
aF0.0007111246034985186
aF0.0007111246034985186
aF0.0006825924342782717
aF0.0006825924342782717
aF0.003428710015562548
aF0.003428710015562548
aF0.0012165887191572398
aF0.0012165887191572398
aF0.0007187057441974736
aF0.0007187057441974736
aF0.0015880586784656834
aF0.0015880586784656834
aF0.005979302179774884
aF0.005979302179774884
aF0.00045531006080050445
aF0.00045531006080050445
aF0.002393332935724804
aF0.002393332935724804
aF0.00039523151618914
aF0.00039523151618914
aF4.209213344053801e-05
aF4.209213344053801e-05
aF0.0043947330244530295
aF0.0043947330244530295
aF0.0024788048613600907
aF0.0024788048613600907
aF0.0021648581324407003
aF0.0021648581324407003
aF0.0031815154735443485
aF0.0031815154735443485
aF0.0001225077554267707
aF0.0001225077554267707
aF0.0017405949241900347
aF0.0017405949241900347
aF0.001630349996817572
aF0.001630349996817572
aF0.0004353969891970729
aF0.0004353969891970729
aF0.0009503900319209636
aF0.0009503900319209636
aF0.0028849483098424052
aF0.0028849483098424052
aF0.0015546757288110657
aF0.0015546757288110657
aF0.0029987749103312492
aF0.0029987749103312492
aF0.0019900645644104413
aF0.0019900645644104413
aF0.004355016479397173
aF0.004355016479397173
aF0.00251346112342449
aF0.00251346112342449
aF0.0027858446579865585
aF0.0027858446579865585
aF0.0010626254624019299
aF0.0003441553140107274
aF0.0003441553140107274
aF0.0032655354482501267
aF0.0032655354482501267
aF0.0029164432743032267
aF0.0029164432743032267
aF0.0031125654582684244
aF0.0031125654582684244
aF0.001059833745209191
aF0.001059833745209191
aF0.002217655221683957
aF0.002217655221683957
aF0.0002518346546503226
aF0.0002518346546503226
aF0.0015061166637216211
aF0.0015061166637216211
aF0.0011146760538328971
aF0.0011146760538328971
aF0.003971578308264734
aF0.003971578308264734
aF0.0016020774007204257
aF0.0016020774007204257
aF0.0027328559931999582
aF0.0027328559931999582
aF0.000303152990849136
aF0.000303152990849136
aF0.001896279311399577
aF0.001896279311399577
aF0.0019544552433699743
aF0.0019544552433699743
aF0.0025095410468812533
aF0.0025095410468812533
aF0.0010732100334319605
aF0.0010732100334319605
aF0.0027615022104140637
aF0.0027615022104140637
aF0.0019691689618824733
aF0.0019691689618824733
aF0.0032046342775377103
aF0.0032046342775377103
aF0.0022222703320717166
aF0.0022222703320717166
aF0.0008016932281304672
aF0.0008016932281304672
aF0.0004502149901161296
aF0.0004502149901161296
aF0.003200258140928102
aF0.003200258140928102
aF0.00497044128824784
aF0.00497044128824784
aF0.006701622244939378
aF0.006701622244939378
aF0.008055223863130356
aF0.008055223863130356
aF0.0014491908295802063
aF0.0014491908295802063
aF0.0017494004696390723
aF0.0017494004696390723
aF0.0008133199194623435
aF0.0008133199194623435
aF0.0018934733104039024
aF0.0018934733104039024
aF0.001832485506444176
aF0.001832485506444176
aF0.002886439626003799
aF0.002886439626003799
aF0.0006357157448899835
aF0.0006357157448899835
aF0.004247614082245858
aF0.004247614082245858
aF0.0017070587727512504
aF0.0017070587727512504
aF0.002754534313247378
aF0.002754534313247378
aF0.0005998783555535346
aF0.0005998783555535346
aF0.001981759868359383
aF0.001981759868359383
aF0.002581821387903553
aF0.002581821387903553
aF0.0010359237096954626
aF0.0010359237096954626
aF0.0005968441863200855
aF0.0005968441863200855
aF0.0002985778727919361
aF0.0002985778727919361
aF0.0018752447043960572
aF0.0018752447043960572
aF0.004691185520571899
aF0.004691185520571899
aF0.0012184767078567912
aF0.0012184767078567912
aF0.0004967311289645332
aF0.0004967311289645332
aF0.001406763568312718
aF0.001406763568312718
aF0.002144876368343175
aF0.002144876368343175
aF0.001277144518438243
aF0.001277144518438243
aF0.0029352299102218785
aF0.0029352299102218785
aF0.0011945301599785808
aF0.0011945301599785808
aF0.0018456389811968613
aF0.0018456389811968613
aF6.752417116712576e-05
aF6.752417116712576e-05
aF0.002532755737774938
aF0.002532755737774938
aF0.004749433741551991
aF0.004749433741551991
aF0.002078807737086313
aF0.002078807737086313
aF0.0024572550314484686
aF0.0024572550314484686
aF0.0010571275673205186
aF0.0010571275673205186
aF0.0028313413319722047
aF0.0028313413319722047
aF0.0005670924527843061
aF0.0005670924527843061
aF9.036615557333917e-05
aF9.036615557333917e-05
aF0.004775071376349886
aF0.004775071376349886
aF0.0024746208349206854
aF0.0024746208349206854
aF0.005853764908803955
aF0.005853764908803955
aF0.0004793822439865889
aF0.0004793822439865889
aF3.4499458742752765e-05
aF3.4499458742752765e-05
aF0.005351851122968954
aF0.005351851122968954
aF0.008197866427312208
aF0.008197866427312208
aF0.002699590056332217
aF0.002699590056332217
aF0.000776456922528101
aF0.000776456922528101
aF0.003042590813004289
aF0.003042590813004289
aF0.0022119873313316226
aF0.0022119873313316226
aF0.0014417531412970893
aF0.0014417531412970893
aF0.0007406241164122566
aF0.0007406241164122566
aF0.0006671119904670393
aF0.0006671119904670393
aF0.00023268238182593435
aF0.00023268238182593435
aF0.005656427736229613
aF0.005656427736229613
aF5.1761887166183434e-05
aF5.1761887166183434e-05
aF0.002119250065812498
aF0.002119250065812498
aF0.004300753288723692
aF0.004300753288723692
aF0.002218950204740525
aF0.002218950204740525
aF0.0016315424776260185
aF0.0016315424776260185
aF0.001239142586561342
aF0.001239142586561342
aF0.00025052410962058037
aF0.00025052410962058037
aF0.004043662339587218
aF0.004043662339587218
aF0.0023399504443535127
aF0.0023399504443535127
aF0.0020178425236953438
aF0.0020178425236953438
aF0.001109200466800761
aF0.001109200466800761
aF0.00288728050459603
aF0.00288728050459603
aF0.007855236494989436
aF0.007855236494989436
aF0.004029635594433103
aF0.004029635594433103
aF0.0007831430871856994
aF0.0007831430871856994
aF0.00720255647690275
aF0.00720255647690275
aF0.0012256065641393227
aF0.0012256065641393227
aF0.0011096552174137873
aF0.0011096552174137873
aF0.0002993262528428372
aF0.0002993262528428372
aF0.004539380368622877
aF0.004539380368622877
aF0.006289668739565136
aF0.006289668739565136
aF0.0035954972858930887
aF0.0035954972858930887
aF0.0022523827596882726
aF0.0022523827596882726
aF0.004067070019795481
aF0.004067070019795481
aF0.0005212051937545327
aF0.0005212051937545327
aF0.0031028138176860125
aF0.0031028138176860125
aF0.0009224379511681198
aF0.0009224379511681198
aF0.005610348917877139
aF0.005610348917877139
aF6.283522216129564e-05
aF6.283522216129564e-05
aF0.0024518690640925197
aF0.0024518690640925197
aF0.00043208722532023946
aF0.00043208722532023946
aF0.005364657852359501
aF0.005364657852359501
aF0.0013889566346141408
aF0.0013889566346141408
aF0.0030413874876524844
aF0.0030413874876524844
aF0.0013173366979709455
aF0.0013173366979709455
aF0.0034060978038694
aF0.0034060978038694
aF0.01157055102527525
aF0.01157055102527525
aF0.008191621881888482
aF0.008191621881888482
aF0.001970981354496295
aF0.001970981354496295
aF0.00023653050727503482
aF0.00023653050727503482
aF0.007213835510838284
aF0.007213835510838284
aF0.0015863520070895992
aF0.0015863520070895992
aF0.0005947735604193989
aF0.0005947735604193989
aF0.001725752162432562
aF0.001725752162432562
aF0.00671924422284641
aF0.00671924422284641
aF0.004402038845916806
aF0.004402038845916806
aF0.0023306990189876824
aF0.0023306990189876824
aF0.008358369799209859
aF0.008358369799209859
aF0.00047838893065350966
aF0.00047838893065350966
aF0.0018052566512518579
aF0.0018052566512518579
aF0.0035413517552720986
aF0.0035413517552720986
aF0.009526453414601685
aF0.0004677159158823376
aF0.0004677159158823376
aF0.008741825161242429
aF0.008741825161242429
aF0.0005819139870360527
aF0.0005819139870360527
aF0.00659739380666011
aF0.00659739380666011
aF0.00243263403995489
aF0.00243263403995489
aF0.005420550073259697
aF0.005420550073259697
aF0.004533808755846925
aF0.004533808755846925
aF0.009724529911806284
aF0.0052438508969109895
aF0.0052438508969109895
aF0.002463386329844963
aF0.002463386329844963
aF0.00033560491913110297
aF0.00033560491913110297
aF0.0007142721673945173
aF0.0007142721673945173
aF0.0008898815981487659
aF0.0008898815981487659
aF0.0038246936054351323
aF0.0038246936054351323
aF0.0064781938275068965
aF0.0064781938275068965
aF0.00046869749013436014
aF0.00046869749013436014
aF0.0012919835758243802
aF0.0012919835758243802
aF0.0021179105902536357
aF0.0021179105902536357
aF0.008733368012470617
aF0.008733368012470617
aF0.005204149264088017
aF0.005204149264088017
aF0.010381420011577836
aF0.010381420011577836
aF0.007012620266333458
aF0.007012620266333458
aF0.013458459791859886
aF0.005012005748245922
aF0.005012005748245922
aF0.0008542608558758048
aF0.0008542608558758048
aF0.0027042472158311597
aF0.0027042472158311597
aF0.0021844276430867593
aF0.0021844276430867593
aF0.003438091023431872
aF0.003438091023431872
aF0.0010410798757000542
aF3.6763150746589555e-05
aF3.6763150746589555e-05
aF0.0007476694792212711
aF0.0007476694792212711
aF0.0043280096414346
aF0.0043280096414346
aF0.0054926887736221714
aF0.0054926887736221714
aF0.00604113186697451
aF0.00604113186697451
aF0.006598993884389629
aF0.006598993884389629
aF0.006344803478106317
aF0.006344803478106317
aF0.008824034578324518
aF0.008824034578324518
aF0.003172902774444128
aF0.003172902774444128
aF0.0017064787669161343
aF0.0017064787669161343
aF0.000975326170045346
aF0.000975326170045346
aF0.0032707476409021465
aF0.0032707476409021465
aF0.0037569012876655854
aF0.0037569012876655854
aF0.006029584122304351
aF0.006029584122304351
aF0.007676884936351494
aF0.007676884936351494
aF0.001837866564350678
aF0.001837866564350678
aF0.007610784966787388
aF0.007610784966787388
aF0.01063202778561098
aF0.01063202778561098
aF0.004667475428624591
aF0.004667475428624591
aF0.005813290693454608
aF0.0015404898259830985
aF0.0015404898259830985
aF0.005787849650989663
aF0.005787849650989663
aF0.004545075412116174
aF0.004545075412116174
aF0.009804724258485054
aF0.009804724258485054
aF0.005030620721471008
aF0.005030620721471008
aF0.0030046784308702277
aF0.0030046784308702277
aF0.005918171095470977
aF0.005918171095470977
aF0.0016030341909535756
aF0.0016030341909535756
aF0.0029210543039995284
aF0.0029210543039995284
aF0.001638426781243958
aF0.001638426781243958
aF0.002400770691487004
aF0.002400770691487004
aF0.0015073401565438719
aF0.0015073401565438719
aF0.0057589979813080245
aF0.0057589979813080245
aF0.004805843330811583
aF0.004805843330811583
aF0.007505006781608954
aF0.007505006781608954
aF0.004075173812912213
aF0.004075173812912213
aF0.006968899234677781
aF0.006968899234677781
aF0.0009140836931182505
aF0.0009140836931182505
aF0.0018397585616562863
aF0.0018397585616562863
aF0.0060743218913225485
aF0.0060743218913225485
aF0.0001658129379030425
aF0.0001658129379030425
aF0.0023009362175947443
aF0.0023009362175947443
aF0.0034946960295762232
aF0.0034946960295762232
aF0.008055881549664348
aF0.008055881549664348
aF0.0040219640227766185
aF0.0040219640227766185
aF0.005748571745692203
aF0.005748571745692203
aF0.007931011767940827
aF0.007931011767940827
aF0.004818794187120538
aF0.004818794187120538
aF0.005115723661758178
aF0.005115723661758178
aF0.0031373206202553617
aF0.0031373206202553617
aF0.0035702963819974954
aF0.0035702963819974954
aF0.002681567664626876
aF0.0016122682925048262
aF0.0016122682925048262
aF0.00418331706552323
aF0.00418331706552323
aF0.020549601489325928
aF0.020549601489325928
aF0.0025044036952377047
aF0.0025044036952377047
aF0.0021548575563261406
aF0.0021548575563261406
aF0.0068219642250952894
aF0.0068219642250952894
aF4.910047484155265e-05
aF4.910047484155265e-05
aF0.0003070684363153406
aF0.0003070684363153406
aF0.00417737800907465
aF0.00417737800907465
aF0.003970302404579265
aF0.003970302404579265
aF0.004714023328848398
aF0.004714023328848398
aF0.000768444929985438
aF0.000768444929985438
aF0.005270781341710618
aF0.005270781341710618
aF0.0010779320156567925
aF0.0010779320156567925
aF0.003447871543922
aF0.003447871543922
aF0.0077649097165476124
aF0.0077649097165476124
aF0.0035027912585979346
aF0.0035027912585979346
aF0.00020653458771307913
aF0.00020653458771307913
aF0.009883890827011362
aF0.009883890827011362
aF0.0022530453405559107
aF0.0022530453405559107
aF0.0058466889058905736
aF0.0058466889058905736
aF0.004207799092406183
aF0.004207799092406183
aF0.010693367558636197
aF0.010693367558636197
aF0.007786712173702034
aF0.007786712173702034
aF0.0003310137113629439
aF0.0003310137113629439
aF0.002936751687434713
aF0.002936751687434713
aF0.007733491692816661
aF0.007733491692816661
aF0.004040878600540887
aF0.004040878600540887
aF0.0031978105836495776
aF0.0031978105836495776
aF0.006666659674855768
aF0.006666659674855768
aF9.270251772818862e-05
aF0.008222560213085959
aF0.008222560213085959
aF0.003888929460550922
aF0.003888929460550922
aF0.004097750996462909
aF0.004097750996462909
aF0.00032884001104211384
aF0.00032884001104211384
aF0.004379364789931085
aF0.004379364789931085
aF0.00047798470532098015
aF0.00047798470532098015
aF0.004266076160928091
aF0.004266076160928091
aF0.0037936668328309767
aF0.0037936668328309767
aF0.008906656959960733
aF0.008906656959960733
aF0.0003470863933215905
aF0.0003470863933215905
aF0.0007176777799961726
aF0.0007605086883901127
aF0.0007605086883901127
aF0.0043919865778232125
aF0.0043919865778232125
aF0.0013136174978443799
aF0.0013136174978443799
aF0.004843490192690751
aF0.004843490192690751
aF0.0022643921430018097
aF0.0022643921430018097
aF0.011014497035463722
aF0.011014497035463722
aF0.002145359271293836
aF0.002145359271293836
aF0.00423566836641662
aF0.00423566836641662
aF0.00016404174997630672
aF0.00016404174997630672
aF0.0006562072876096521
aF0.0006562072876096521
aF0.00019933126532096086
aF0.00019933126532096086
aF0.00022627130800924618
aF0.00022627130800924618
aF0.0028526908720005544
aF0.0028526908720005544
aF0.010474166747031683
aF0.010474166747031683
aF0.001726574131951971
aF0.001726574131951971
aF0.00786828032506068
aF0.00786828032506068
aF0.003502429001878951
aF0.003502429001878951
aF0.0008087987920576207
aF0.0008087987920576207
aF0.003831336780793413
aF0.003831336780793413
aF0.009251246520588749
aF0.0029419589558590574
aF0.0029419589558590574
aF0.003561048794108634
aF0.003561048794108634
aF0.009301577293085362
aF0.009301577293085362
aF0.010957736923010598
aF0.010957736923010598
aF0.0065755974261225945
aF0.0065755974261225945
aF0.0018031003761038791
aF0.0018031003761038791
aF0.0004350069356198691
aF0.0004350069356198691
aF0.002930513346560648
aF0.002930513346560648
aF0.0036352605962731333
aF0.0036352605962731333
aF0.0041687842647988894
aF0.0041687842647988894
aF0.004546989881104566
aF0.004546989881104566
aF0.0025939044281254532
aF0.0025939044281254532
aF0.006561707857529114
aF0.006561707857529114
aF0.005040975016147819
aF0.005040975016147819
aF0.014151846335313602
aF0.014151846335313602
aF0.012190173614795517
aF0.012190173614795517
aF0.00794807795938642
aF0.00794807795938642
aF0.010364094133537232
aF0.010364094133537232
aF0.0035863926054356906
aF0.0035863926054356906
aF0.0016032464141033397
aF0.0016032464141033397
aF0.0027561247251471042
aF0.0027561247251471042
aF0.0021743934483624294
aF0.0021743934483624294
aF0.002556438549128668
aF0.0024326975615704
aF0.0024326975615704
aF0.00014386765279407422
aF0.00014386765279407422
aF0.002979916202831168
aF0.002979916202831168
aF0.007450887059049892
aF0.007450887059049892
aF0.00480989460008642
aF0.00480989460008642
aF0.0029991711077609344
aF0.0029991711077609344
aF0.0071663770290113955
aF0.0071663770290113955
aF0.0013070530493178238
aF0.0013070530493178238
aF0.004046144483711256
aF0.004046144483711256
aF0.0026316762947440385
aF0.0026316762947440385
aF0.005666637536217596
aF0.005666637536217596
aF0.009517683443991455
aF0.009517683443991455
aF0.0013401855268320077
aF0.0013401855268320077
aF0.0034771864523526676
aF0.0034771864523526676
aF0.0016638881423879045
aF0.0016638881423879045
aF0.008302582830051973
aF0.008302582830051973
aF0.004852449551551347
aF0.004852449551551347
aF0.002872756896000676
aF0.002872756896000676
aF0.003192828685831347
aF0.003192828685831347
aF0.0048777411468256746
aF0.0048777411468256746
aF0.0010021388562661724
aF0.0010021388562661724
aF0.007023157047059122
aF0.007023157047059122
aF0.010147803995554604
aF0.010147803995554604
aF0.008383115402768843
aF0.008383115402768843
aF0.00047197976582177386
aF0.00047197976582177386
aF0.0073487900673181675
aF0.0073487900673181675
aF0.003160378798976101
aF0.003160378798976101
aF0.004409077859961887
aF0.004409077859961887
aF0.0004454282293301996
aF0.0004454282293301996
aF0.009521034878981422
aF0.009521034878981422
aF0.0049924696479797005
aF0.0049924696479797005
aF0.008526960894230575
aF0.008526960894230575
aF0.005534150107046554
aF0.005534150107046554
aF0.001611950688553576
aF0.007156980631575456
aF0.007156980631575456
aF0.0076886557747191065
aF0.0076886557747191065
aF0.0018465726273486631
aF0.0018465726273486631
aF0.015616566337815399
aF0.0035595508277532373
aF0.0035595508277532373
aF0.013993064679402974
aF0.013993064679402974
aF0.0069526437326463564
aF0.0069526437326463564
aF0.008553756763257618
aF0.008553756763257618
aF0.006253820360226145
aF0.006253820360226145
aF0.009640736236694597
aF0.009640736236694597
aF0.0015346139343825518
aF0.0015346139343825518
aF0.010264279541857334
aF0.010264279541857334
aF0.0003329054067775836
aF0.0003329054067775836
aF0.01605162161418736
aF0.01605162161418736
aF0.0017477616586127934
aF0.0017477616586127934
aF0.0008466343659574026
aF0.0008466343659574026
aF0.005643208928120674
aF0.005643208928120674
aF0.002795692454535615
aF0.002795692454535615
aF0.0058180093606822175
aF0.0058180093606822175
aF0.004245406725549787
aF0.004245406725549787
aF0.002265306505475699
aF0.002265306505475699
aF0.004396989459241418
aF0.004396989459241418
aF0.010132212062026483
aF0.010132212062026483
aF0.013746573769383428
aF0.0004194073474544128
aF0.0004194073474544128
aF0.012589211074284184
aF0.012589211074284184
aF0.007737576976572268
aF0.007737576976572268
aF0.006283323006631582
aF0.006283323006631582
aF0.00016564755643342497
aF0.00016564755643342497
aF0.0019830275777597576
aF0.0019830275777597576
aF0.015325146019297964
aF0.015325146019297964
aF0.014354516535400279
aF0.014354516535400279
aF0.013943551351582702
aF0.013943551351582702
aF0.005193147658888974
aF0.005193147658888974
aF0.004550075776754463
aF0.004550075776754463
aF0.011221224583315282
aF0.011221224583315282
aF0.008009340563136466
aF0.008009340563136466
aF0.004123810099656397
aF0.004123810099656397
aF0.009393573263027623
aF0.009393573263027623
aF0.0009664867453113029
aF0.0009664867453113029
aF0.009652811154656823
aF0.009652811154656823
aF0.00627433427124435
aF0.00627433427124435
aF0.01201200347317594
aF0.004527288841303995
aF0.004527288841303995
aF0.00018287457777859084
aF0.00018287457777859084
aF0.00020066279685056898
aF0.00020066279685056898
aF0.00034561895560554344
aF0.00034561895560554344
aF0.005414905226944113
aF0.005414905226944113
aF0.0005444747160716044
aF0.0005444747160716044
aF0.003090413354338618
aF0.003090413354338618
aF0.0032205359673835718
aF0.0032205359673835718
aF0.0022724235114310208
aF0.0022724235114310208
aF0.00124209525446428
aF0.00124209525446428
aF0.0013640838077134626
aF0.0013640838077134626
aF0.033405367689996614
aF0.007339621113362699
aF0.007339621113362699
aF0.015272932315615896
aF0.015272932315615896
aF0.011905548538006282
aF0.011905548538006282
aF0.004253318389642979
aF0.004253318389642979
aF0.007479928151584259
aF0.007479928151584259
aF0.022557605461984757
aF0.022557605461984757
aF0.006908071714081613
aF0.006908071714081613
aF0.0009647251323605847
aF0.0009647251323605847
aF0.007065821259395119
aF0.007065821259395119
aF0.00596024698886873
aF0.00596024698886873
aF0.007481490793357778
aF0.007481490793357778
aF0.0033908595439887737
aF0.0033908595439887737
aF0.009864115139943562
aF0.009864115139943562
aF0.016851091125769945
aF0.016851091125769945
aF0.004982527036671175
aF0.004982527036671175
aF0.003735903168402364
aF0.003735903168402364
aF0.020555766991789185
aF0.004918619399373188
aF0.004918619399373188
aF0.0002993912066389951
aF0.0002993912066389951
aF0.007542366796538665
aF0.007542366796538665
aF0.0006810687447979673
aF0.0006810687447979673
aF0.004693519084444265
aF0.004693519084444265
aF0.005724765979351508
aF0.005724765979351508
aF0.0015323223234067495
aF0.008125827819265396
aF0.008125827819265396
aF0.018849525504417628
aF0.018849525504417628
aF0.007676652806756223
aF0.007676652806756223
aF0.021272036230200787
aF0.021272036230200787
aF0.007452008002988282
aF0.007452008002988282
aF0.014876396232876208
aF0.014876396232876208
aF0.01639070699617955
aF0.01639070699617955
aF0.001662676770529272
aF0.001662676770529272
aF0.0060754487950408125
aF0.0060754487950408125
aF0.0073864786362842424
aF0.0073864786362842424
aF0.010256624345507101
aF0.010256624345507101
aF0.005384338078139354
aF0.005384338078139354
aF0.001513645287105326
aF0.001513645287105326
aF0.015209017123263743
aF0.015209017123263743
aF0.002280473969682839
aF0.002280473969682839
aF0.006476664370430876
aF0.006476664370430876
aF0.010502240070675692
aF0.010502240070675692
aF0.030475530700853737
aF0.030475530700853737
aF0.013948321361882792
aF0.013948321361882792
aF0.017101828349808
aF0.016240894075891674
aF0.016240894075891674
aF0.017890166182246783
aF0.017890166182246783
aF0.016156246328436145
aF0.016156246328436145
aF0.009050486223884067
aF0.009050486223884067
aF0.003822273209743507
aF0.003822273209743507
aF0.0034634698187482305
aF0.0034634698187482305
aF0.015086506063557353
aF0.015086506063557353
aF0.011581835002413521
aF0.011581835002413521
aF0.00027505509415769
aF0.00027505509415769
aF0.03991436561254641
aF0.03991436561254641
aF0.005898991761595254
aF0.005898991761595254
aF0.006926101012055518
aF0.006926101012055518
aF0.014974981927417096
aF0.014974981927417096
aF0.0013935315183451365
aF0.0013935315183451365
aF0.004694591139687818
aF0.004694591139687818
aF0.016606600959338122
aF0.016606600959338122
aF0.017939370601623376
aF0.017939370601623376
aF0.019604692655754447
aF0.019604692655754447
aF0.003031675639511291
aF0.003031675639511291
aF0.0044946884661596475
aF0.0044946884661596475
aF0.0045786689929832106
aF0.0045786689929832106
aF0.008650122826379447
aF0.008650122826379447
aF0.00572990929112259
aF0.00572990929112259
aF0.0040600324298169605
aF0.0040600324298169605
aF0.013442045861040091
aF0.01193328756512429
aF0.01193328756512429
aF0.00258230729730242
aF0.00258230729730242
aF0.00029128577091589147
aF0.00029128577091589147
aF0.0012142531846899478
aF0.0012142531846899478
aF0.009542129919884871
aF0.009542129919884871
aF0.0035562973024401653
aF0.0035562973024401653
aF0.02431409981768196
aF0.02431409981768196
aF0.0014409878923839828
aF0.0014409878923839828
aF0.027249200542074612
aF0.027249200542074612
aF0.05247001945676695
aF0.05247001945676695
aF0.0598725970289869
aF0.003156661822059444
aF0.003156661822059444
aF0.012263444010589314
aF0.012263444010589314
aF0.00013822261297884907
aF0.00013822261297884907
aF0.01276380764467472
aF0.01276380764467472
aF0.018141773279358935
aF0.018141773279358935
aF0.011617809967098906
aF0.011617809967098906
aF0.0005572475462821464
aF0.0005572475462821464
aF0.010551002939037098
aF0.010551002939037098
aF0.00981963761485508
aF0.00981963761485508
aF0.0740941185728461
aF0.0740941185728461
aF0.01602934898207727
aF0.01602934898207727
aF0.005049864003774417
aF0.005049864003774417
aF0.0004683830953773702
aF0.0004683830953773702
aF0.0013437376903562923
aF0.0013437376903562923
aF0.005894798018185679
aF0.005894798018185679
aF0.0024297436704195183
aF0.0024297436704195183
aF0.02483074712430499
aF0.02483074712430499
aF0.02188569804522843
aF0.02188569804522843
aF0.000857148992358991
aF0.000857148992358991
aF0.014701235407581543
aF0.014701235407581543
aF0.0014644704832128606
aF0.0014644704832128606
aF0.002737230600668999
aF0.002737230600668999
aF0.01596363891863068
aF0.01596363891863068
aF0.007631389947539142
aF0.007631389947539142
aF0.008887080772157118
aF0.008887080772157118
aF0.020279458591176257
aF0.020279458591176257
aF0.003919710714597134
aF0.003919710714597134
aF0.00726740490118039
aF0.00726740490118039
aF0.0039322834321399635
aF0.0039322834321399635
aF0.007898295078073799
aF0.007898295078073799
aF0.0005160879918365691
aF0.13171959639453926
aF0.13666987838956296
aF0.13666987838956296
aF0.025307395552207176
aF0.025307395552207176
aF0.014085829464346618
aF0.014085829464346618
aF0.0015409604090433624
aF0.0015409604090433624
aF0.01677321621558919
aF0.01677321621558919
aF0.011198788234928935
aF0.011198788234928935
aF0.01456765343759378
aF0.01456765343759378
aF0.005084981219348015
aF0.005084981219348015
aF3.2734439217469986e-05
aF3.2734439217469986e-05
aF0.009738144726581993
aF0.009738144726581993
aF0.014203380575702924
aF0.014203380575702924
aF0.006714943020024704
aF0.006714943020024704
aF0.0011953596772004075
aF0.0011953596772004075
aF0.023774798142434703
aF0.023774798142434703
aF0.004496820772846669
aF0.004496820772846669
aF0.009399404926822823
aF0.009399404926822823
aF0.005540288477547323
aF0.005540288477547323
aF0.010828218511507679
aF0.010828218511507679
aF0.04083819406270916
aF0.0043343477666425885
aF0.0043343477666425885
aF0.00934473624767306
aF0.00934473624767306
aF0.010786311883662424
aF0.010786311883662424
aF0.0006236733052146384
aF0.0006236733052146384
aF0.013582731590526366
aF0.013582731590526366
aF0.005779989013288927
aF0.005779989013288927
aF0.014181933296340448
aF0.014181933296340448
aF0.00020327796452653235
aF0.00020327796452653235
aF0.027437055153322596
aF0.027437055153322596
aF0.023189597089816903
aF0.0031274627248742744
aF0.0031274627248742744
aF0.0471131793633493
aF0.0471131793633493
aF0.008070021380878638
aF0.008070021380878638
aF0.00722249959205293
aF0.00722249959205293
aF0.002408779451221483
aF0.002408779451221483
aF0.005506922938270938
aF0.005506922938270938
aF0.010259958370035918
aF0.010259958370035918
aF0.008168256928101377
aF0.008168256928101377
aF0.008334119554812234
aF0.008334119554812234
aF0.005993469283991426
aF0.005993469283991426
aF0.0028397575734888506
aF0.0028397575734888506
aF0.004028092667958886
aF0.004028092667958886
aF0.0025893319268648126
aF0.0025893319268648126
aF0.001191651794811163
aF0.019146182775947266
aF0.019146182775947266
aF0.008139514371457667
aF0.008139514371457667
aF0.008731974301275518
aF0.008731974301275518
aF0.011152217593434427
aF0.011152217593434427
aF0.09313419293285777
aF0.011668314550404346
aF0.011668314550404346
aF0.009863226474542365
aF0.009863226474542365
aF0.003912452832293504
aF0.003912452832293504
aF0.010826043836620197
aF0.010826043836620197
aF0.003963794756910673
aF0.003963794756910673
aF0.001174892182491947
aF0.001174892182491947
aF0.0012815485678640882
aF0.0012815485678640882
aF0.008309404624704461
aF0.0025449914854817073
aF0.0025449914854817073
aF0.0044172856812306404
aF0.0044172856812306404
aF0.11961158912729758
aF0.11961158912729758
aF0.004848586130687916
aF0.004848586130687916
aF0.008903177612479022
aF0.008903177612479022
aF0.0016859419538085326
aF0.0016859419538085326
aF0.037051391810044555
aF0.023847939413402405
aF0.023847939413402405
aF0.005564606767688035
aF0.005564606767688035
aF0.00576197770198021
aF0.0030361513606903335
aF0.0030361513606903335
aF0.003840199371622793
aF0.003840199371622793
aF0.012157187885185283
aF0.012157187885185283
aF0.014423684224183244
aF0.014423684224183244
aF0.01632247265678582
aF0.01632247265678582
aF0.0015170016263480043
aF0.0015170016263480043
aF0.0035401178491720527
aF0.0035401178491720527
aF0.008012243157351913
aF0.008012243157351913
aF0.011729667885278442
aF0.011729667885278442
aF0.031897971485718817
aF0.031897971485718817
aF0.01080736273766942
aF0.01080736273766942
aF0.009595987291487265
aF0.009595987291487265
aF0.009692663852079746
aF0.009692663852079746
aF0.019850305627653282
aF0.0012073132343206226
aF0.0012073132343206226
aF0.012392001057877109
aF0.012392001057877109
aF0.005520371368079695
aF0.005520371368079695
aF0.007831025261201476
aF0.007831025261201476
aF0.005417910491260219
aF0.005417910491260219
aF0.013849379657102864
aF0.013849379657102864
aF0.029688357697173814
aF0.029688357697173814
aF0.08719447011284677
aF0.0030376072033303785
aF0.0030376072033303785
aF0.0073993093074596695
aF0.0073993093074596695
aF0.0035674839783832652
aF0.0035674839783832652
aF0.006425996408430986
aF0.006425996408430986
aF0.008070392839283878
aF0.008070392839283878
aF0.0026091136079802236
aF0.0026091136079802236
aF0.004999999911925262
aF0.004999999911925262
aF0.0016824859276386784
aF0.0016824859276386784
aF0.0018257722521818126
aF0.0018257722521818126
aF0.0021169075389653293
aF0.0021169075389653293
aF0.020581617229433084
aF0.020581617229433084
aF0.10817179649658143
aF0.012254227757544625
aF0.012254227757544625
aF0.006711076954017638
aF0.006711076954017638
aF0.0040828736782803346
aF0.0040828736782803346
aF0.0019183589834010808
aF0.0019183589834010808
aF0.004167825410181168
aF0.004167825410181168
aF0.0031392603059350716
aF0.0031392603059350716
aF0.0020602419626768844
aF0.0020602419626768844
aF0.0072305932955175
aF0.0072305932955175
aF0.00190851908209665
aF0.00190851908209665
aF0.0024151193278039705
aF0.0038527756419369265
aF0.0038527756419369265
aF0.0017778773582026839
aF0.0017778773582026839
aF0.01806636045008593
aF0.01806636045008593
aF0.0444366827713961
aF0.0444366827713961
aF0.004498934683486369
aF0.004498934683486369
aF0.04872365434859475
aF0.04872365434859475
aF0.024234626029936944
aF0.024234626029936944
aF0.004843138989104435
aF0.004843138989104435
aF0.004504235564415661
aF0.004504235564415661
aF0.0021503693836765546
aF0.0021503693836765546
aF0.010721243750213152
aF0.010721243750213152
aF0.0016430061733805062
aF0.0016430061733805062
aF0.009941101680775838
aF0.009941101680775838
aF0.004016486135397165
aF0.004016486135397165
aF0.004163348462638149
aF0.004163348462638149
aF0.005423724850073668
aF0.005423724850073668
aF0.014200791699156064
aF0.014200791699156064
aF0.029521994923069488
aF0.029521994923069488
aF0.028927816286127568
aF0.028927816286127568
aF0.005616282385363529
aF0.005616282385363529
aF0.00041927243970180637
aF0.00041927243970180637
aF0.00012908788889831908
aF0.00012908788889831908
aF0.0022530642912386993
aF0.0022530642912386993
aF0.0020937510175743804
aF0.0020937510175743804
aF0.0072572287396792095
aF0.0010904100019891937
aF0.0010904100019891937
aF0.00046536978062319844
aF0.00046536978062319844
aF0.020083757414507533
aF0.020083757414507533
aF0.04111789182764411
aF0.04111789182764411
aF0.02218543661284376
aF0.0018869241070009605
aF0.0018869241070009605
aF0.008627686706488915
aF0.008627686706488915
aF0.011996476435547814
aF0.011996476435547814
aF0.018672364376591265
aF0.018672364376591265
aF0.0036987988501470024
aF0.0036987988501470024
aF0.012057401230690596
aF0.012057401230690596
aF0.013914860846875038
aF0.013914860846875038
aF0.00789171269767818
aF0.00789171269767818
aF0.004164859500929002
aF0.004164859500929002
aF0.022712840800844677
aF0.022712840800844677
aF0.004075114533378247
aF0.004075114533378247
aF0.013692325342337674
aF0.013692325342337674
aF0.0025830658859867382
aF0.0025830658859867382
aF0.019373008493956404
aF0.019373008493956404
aF0.03828740466662791
aF0.03828740466662791
aF0.0022053918692871784
aF0.0022053918692871784
aF0.0012520792366230626
aF2.2658570381965545e-05
aF2.2658570381965545e-05
aF0.003971095811479415
aF0.003971095811479415
aF0.010435769904095785
aF0.010435769904095785
aF0.011464312296856861
aF0.011464312296856861
aF0.010599102461426672
aF0.010599102461426672
aF0.0077713341183403275
aF0.0077713341183403275
aF0.011767599820256866
aF0.011767599820256866
aF0.0123658374666389
aF0.0123658374666389
aF0.0007328280082781301
aF0.0007328280082781301
aF0.017580749698870076
aF0.008579010730578093
aF0.008579010730578093
aF0.016648116877870586
aF0.0027858297052810997
aF0.0027858297052810997
aF0.002279767274907058
aF0.002279767274907058
aF0.0014908042045435627
aF0.0014908042045435627
aF0.0010466355625227072
aF0.0010466355625227072
aF0.00442629997035676
aF0.00442629997035676
aF0.007262781043631676
aF0.007262781043631676
aF0.003135123935363685
aF0.003135123935363685
aF0.004735175564867004
aF0.004735175564867004
aF0.009823103218593676
aF0.009823103218593676
aF0.013346234844456562
aF0.013346234844456562
aF0.006673468727245471
aF0.006673468727245471
aF0.00108298635611873
aF0.00108298635611873
aF0.0018496756594140369
aF0.0018496756594140369
aF0.0018324775445958009
aF0.0018324775445958009
aF0.0010097394869298811
aF0.0010097394869298811
aF0.010107811965440189
aF0.010107811965440189
aF0.0028280428585446553
aF0.0028280428585446553
aF0.0039897913232983945
aF0.0039897913232983945
aF0.008570659569516043
aF0.008570659569516043
aF0.0038126980116863518
aF0.0038126980116863518
aF0.0036133227547348093
aF0.0036133227547348093
aF0.013202636584004153
aF0.013202636584004153
aF0.007342658393214281
aF0.007342658393214281
aF0.004568244123281672
aF0.004568244123281672
aF0.019320062520709943
aF0.019320062520709943
aF0.006542587409668352
aF0.006542587409668352
aF7.201099497802366e-05
aF7.201099497802366e-05
aF0.02320950350253262
aF0.02320950350253262
aF0.004317723605575428
aF0.004317723605575428
aF0.0028855260628566116
aF0.0028855260628566116
aF0.005685080677083025
aF0.005685080677083025
aF0.004976181088384492
aF0.004976181088384492
aF0.008931821383673277
aF0.008931821383673277
aF0.005342122871314003
aF0.005342122871314003
aF0.01317586085327844
aF0.01317586085327844
aF0.006487938125245984
aF0.006487938125245984
aF0.020784784110901976
aF0.020784784110901976
aF0.004691163256235744
aF0.004691163256235744
aF0.008477070119847583
aF0.008477070119847583
aF0.004779474194848399
aF0.004779474194848399
aF0.008150215852901741
aF0.008150215852901741
aF0.0026364341323987985
aF0.0026364341323987985
aF0.0025960004314657683
aF0.0025960004314657683
aF0.0010666851608411175
aF0.0010666851608411175
aF0.010355669440039407
aF0.010355669440039407
aF0.005807313783524353
aF0.005807313783524353
aF0.0023725451383096664
aF0.0023725451383096664
aF0.00826836864979033
aF0.00826836864979033
aF0.006231951531747536
aF0.006231951531747536
aF0.014212000311937137
aF0.014212000311937137
aF0.0010189712337428545
aF0.0010189712337428545
aF0.0005531532971774204
aF0.0005531532971774204
aF0.007246366593662975
aF0.006463133685490499
aF0.005158006824536733
aF0.005158006824536733
aF0.0012442375795020304
aF0.0012442375795020304
aF0.006116106613661549
aF0.006116106613661549
aF0.005853224356086317
aF0.005853224356086317
aF0.0036850878924879022
aF0.0036850878924879022
aF0.01758153076691061
aF0.01758153076691061
aF0.005132698420095179
aF0.005132698420095179
aF0.008256720681519643
aF0.008256720681519643
aF0.00900636757491485
aF0.00900636757491485
aF0.005821382316429308
aF0.005821382316429308
aF0.005926635839297886
aF0.005926635839297886
aF0.0074397335512226765
aF0.0074397335512226765
aF0.009282320656694137
aF0.009282320656694137
aF0.00606549941972608
aF0.00606549941972608
aF0.0004620610769514768
aF0.0004620610769514768
aF0.010619246518295112
aF0.010619246518295112
aF0.008645746225945076
aF0.008645746225945076
aF0.0024563943986828317
aF0.0024563943986828317
aF0.002127867995898862
aF0.002127867995898862
aF0.0053296367794310575
aF0.0053296367794310575
aF0.004167041036078333
aF0.004167041036078333
aF0.0016506007265307302
aF0.002845803184315925
aF0.002845803184315925
aF0.00015927980947122154
aF0.00015927980947122154
aF0.003671052056991634
aF0.003671052056991634
aF0.0078549826012092
aF0.0078549826012092
aF0.006596465677602562
aF0.006596465677602562
aF0.0034542465892916734
aF0.0034542465892916734
aF0.011356718764630978
aF0.011356718764630978
aF0.005155236555558524
aF0.005155236555558524
aF0.00042137701458318504
aF0.00042137701458318504
aF0.002290265422388581
aF0.002290265422388581
aF0.0005102953950597464
aF0.0005102953950597464
aF0.007787540094975439
aF0.007787540094975439
aF0.012793931270887609
aF0.012793931270887609
aF0.001681047672517968
aF0.001681047672517968
aF0.0014840794356322392
aF0.0014840794356322392
aF0.003721264511010679
aF0.003721264511010679
aF0.004343787307792646
aF0.004343787307792646
aF1.4125315541387462e-05
aF1.4125315541387462e-05
aF0.0012225893979017806
aF0.0012225893979017806
aF0.010527254735402619
aF0.010527254735402619
aF0.0006404928600665545
aF0.0006404928600665545
aF0.00786094586286114
aF0.00786094586286114
aF0.005523191327758578
aF0.005523191327758578
aF0.011820093790904571
aF0.011820093790904571
aF0.009699399187570353
aF0.009699399187570353
aF0.002982799983857439
aF0.002982799983857439
aF0.0010626253728442364
aF0.0010626253728442364
aF0.005274966332302804
aF0.005274966332302804
aF0.005594424491005632
aF0.005594424491005632
aF0.004521212177467896
aF0.004521212177467896
aF0.005047861522215175
aF0.005047861522215175
aF0.01044754395675984
aF0.01044754395675984
aF0.0013283474415278545
aF0.0013283474415278545
aF0.009646267710354515
aF0.009646267710354515
aF0.010440247110826525
aF0.010440247110826525
aF0.0010843695940253666
aF0.0010843695940253666
aF0.005160275690379688
aF0.005160275690379688
aF0.005717766944600381
aF0.005717766944600381
aF0.0034077042466916473
aF0.0034077042466916473
aF0.005724541374460489
aF0.005724541374460489
aF0.002164808001472983
aF0.002164808001472983
aF0.0004416570721037501
aF0.0004416570721037501
aF0.0018974752105995825
aF0.0018974752105995825
aF0.003073512939397326
aF0.003073512939397326
aF0.010471987912354997
aF0.010471987912354997
aF7.340884992649535e-05
aF7.340884992649535e-05
aF0.003680328894646906
aF0.003680328894646906
aF0.0011969458926742783
aF0.0011969458926742783
aF0.00013699622074228032
aF0.00013699622074228032
aF0.0014950593937857483
aF0.0014950593937857483
aF0.005594820176305492
aF0.005594820176305492
aF0.0025669501383395474
aF0.0025669501383395474
aF0.004214194607248122
aF0.004214194607248122
aF0.0071130328554697055
aF0.0071130328554697055
aF0.002646023020972617
aF0.002646023020972617
aF0.006732126204944108
aF0.006732126204944108
aF0.0035372440145172482
aF0.0035372440145172482
aF0.003916741492249691
aF0.003916741492249691
aF0.011392307300808355
aF0.0019350070240344035
aF0.0019350070240344035
aF0.0008981374536055291
aF0.0008981374536055291
aF0.0003970432836764963
aF0.0003970432836764963
aF0.0035184162124264296
aF0.0035184162124264296
aF0.004266479863054322
aF0.004266479863054322
aF0.004522217736331928
aF0.004522217736331928
aF0.001764763838685807
aF0.001764763838685807
aF0.003479010535560864
aF0.003479010535560864
aF0.0025255846762112927
aF0.0025255846762112927
aF0.0033860610684047884
aF0.0033860610684047884
aF0.0061424691939280475
aF0.0061424691939280475
aF0.0024265763751762097
aF0.0024265763751762097
aF0.00470465673001619
aF0.00470465673001619
aF0.0023042175804329893
aF0.0023042175804329893
aF0.004590544020520237
aF0.004590544020520237
aF0.001330718329863383
aF0.001330718329863383
aF0.0018616383292234305
aF0.0018616383292234305
aF0.003955640980170396
aF0.003955640980170396
aF0.0018152196733422353
aF0.0066164773492718605
aF0.0066164773492718605
aF0.0013359511095054582
aF0.0013359511095054582
aF0.0034479260616485812
aF0.0034479260616485812
aF0.0007599259391523952
aF0.0007599259391523952
aF0.005976908519390842
aF0.005976908519390842
aF0.003368095959253247
aF0.003368095959253247
aF0.00600912527436998
aF0.00600912527436998
aF0.004103716290766195
aF0.004103716290766195
aF0.010677958655884119
aF0.010677958655884119
aF0.004535717824869939
aF0.004535717824869939
aF0.0005662459593225128
aF0.0005662459593225128
aF0.000380893422872491
aF0.000380893422872491
aF0.0003947009755313354
aF0.0003947009755313354
aF0.0025084017209539363
aF0.0025084017209539363
aF0.008965451435458769
aF0.008965451435458769
aF0.008150342848923282
aF0.008150342848923282
aF0.01003777804045305
aF0.01003777804045305
aF0.005934755839013823
aF0.005934755839013823
aF0.010531769957770646
aF0.010531769957770646
aF0.0029862605545158986
aF0.0029862605545158986
aF0.0014595575707033403
aF0.0014595575707033403
aF0.0022846803295797496
aF0.0022846803295797496
aF0.007207154314478933
aF0.007207154314478933
aF0.004034393982593879
aF0.004034393982593879
aF0.0007069045174733174
aF0.0007069045174733174
aF0.011308924138125473
aF0.011438763312618692
aF0.011438763312618692
aF0.00011663984964260446
aF0.00011663984964260446
aF0.014732837473523887
aF0.014732837473523887
aF0.005801481912810487
aF0.006028980672743192
aF0.006028980672743192
aF0.004138274215568799
aF0.004138274215568799
aF0.006425273812606519
aF0.006425273812606519
aF0.01017101773516273
aF0.01017101773516273
aF0.0038730713147124055
aF0.0038730713147124055
aF0.00038047443688886607
aF0.00038047443688886607
aF2.0379299611962264e-05
aF2.0379299611962264e-05
aF0.003696779337487018
aF0.006641243761151553
aF0.006641243761151553
aF0.0031834235829686646
aF0.0031834235829686646
aF0.0010536065439374516
aF0.0010536065439374516
aF0.0012142297423524452
aF0.0012142297423524452
aF0.0019059896221253572
aF0.0019059896221253572
aF0.004264924254833376
aF0.0017812023547000575
aF0.0017812023547000575
aF0.007605253425208631
aF0.007605253425208631
aF0.003235125353453439
aF0.003235125353453439
aF0.0005200561491880481
aF0.0005200561491880481
aF0.001605232571838567
aF0.001605232571838567
aF0.005070954489652825
aF0.005070954489652825
aF0.003570448227335161
aF0.003570448227335161
aF0.006457706366128498
aF0.006457706366128498
aF0.0012538707047622403
aF0.0012538707047622403
aF0.006718528833788808
aF0.006718528833788808
aF0.010485229975167664
aF0.0025176584328301683
aF0.0025176584328301683
aF0.0008971725477695835
aF0.0008971725477695835
aF0.0010724128137107986
aF0.0010724128137107986
aF0.0026184619689939076
aF0.0026184619689939076
aF0.001958129827682131
aF0.001958129827682131
aF0.0004930038455980818
aF0.0004930038455980818
aF0.004849366042771899
aF0.004849366042771899
aF4.089212068647616e-05
aF4.089212068647616e-05
aF0.00482501343909624
aF0.00482501343909624
aF0.006799425245023519
aF0.004811629388756393
aF0.004811629388756393
aF0.0025794896197117493
aF0.0025794896197117493
aF0.006571426447452195
aF0.00047692820575048273
aF0.00047692820575048273
aF0.002348199378400282
aF0.002348199378400282
aF0.003059231655307965
aF0.003059231655307965
aF0.001028559793262338
aF0.001028559793262338
aF0.0033782649001666497
aF0.0033782649001666497
aF0.002689200517554053
aF0.002689200517554053
aF0.0011609068085372833
aF0.0011609068085372833
aF0.007294740790287592
aF0.007294740790287592
aF0.0004975605530186744
aF0.0004975605530186744
aF0.0011228089013837264
aF0.0011228089013837264
aF0.0023684967755698105
aF0.0023684967755698105
aF0.0037851908697448936
aF0.0037851908697448936
aF0.006378445125245851
aF0.006378445125245851
aF0.0007047459306838396
aF0.0007047459306838396
aF0.003449755481533923
aF0.003449755481533923
aF0.0035669145110621167
aF0.0035669145110621167
aF0.0015934476463957794
aF0.0015934476463957794
aF0.0036834603089191415
aF0.0036834603089191415
aF0.00028319526145343743
aF0.00028319526145343743
aF0.0034182221179823702
aF0.0034182221179823702
aF0.002229520948232236
aF0.002229520948232236
aF0.0052712707270040505
aF0.0052712707270040505
aF0.0025276594581848926
aF0.0025276594581848926
aF0.004265314038056153
aF0.004265314038056153
aF0.0002306319101418543
aF0.0002306319101418543
aF0.005136754247663254
aF0.005136754247663254
aF0.0009639970022921315
aF0.0009639970022921315
aF0.0038325671423967457
aF0.0026565235353829464
aF0.0026565235353829464
aF0.0026516414258551586
aF0.0026516414258551586
aF0.0019466438176507339
aF0.0019466438176507339
aF0.0020498378863598346
aF0.0020498378863598346
aF0.001791102269692003
aF0.001791102269692003
aF0.00201516437231056
aF0.00201516437231056
aF0.004347738047159589
aF0.004347738047159589
aF0.003012910538874523
aF0.003012910538874523
aF0.0030006825902434997
aF0.001425213823860031
aF0.001425213823860031
aF0.0013954092597866046
aF0.0013954092597866046
aF0.0035154214767334265
aF0.0035154214767334265
aF0.002351870395023464
aF0.002351870395023464
aF0.0014239123349545125
aF0.0014239123349545125
aF0.0016670144965921863
aF0.0016670144965921863
aF0.006702768583794451
aF0.006702768583794451
aF0.004311782558238244
aF0.004311782558238244
aF0.00026092958548475494
aF0.00026092958548475494
aF0.0032676193024537524
aF0.0032676193024537524
aF0.004233416023031158
aF0.004233416023031158
aF0.0037601220274822945
aF0.0037601220274822945
aF0.002131472069206768
aF0.002131472069206768
aF0.0014247993809681486
aF0.0014247993809681486
aF0.002789463787404318
aF0.002789463787404318
aF0.00331265695032238
aF0.00331265695032238
aF0.0015783356633808025
aF0.0015783356633808025
aF0.0009714291898755726
aF0.0009714291898755726
aF0.0010229154790028395
aF0.0010229154790028395
aF0.001602340200300368
aF0.001602340200300368
aF0.0015023549268384805
aF0.0015023549268384805
aF0.0022255960663263175
aF0.0022255960663263175
aF0.005046870244178775
aF0.005046870244178775
aF0.0009028829184724263
aF0.0009028829184724263
aF0.0015313071211837143
aF0.0015313071211837143
aF0.0029369341213634492
aF0.0029369341213634492
aF0.0006588558402848757
aF0.0006588558402848757
aF0.0015947168920399948
aF0.0015947168920399948
aF0.0019344425720043054
aF0.0019344425720043054
aF0.0021892650769896366
aF0.0021892650769896366
aF0.002574528323240507
aF0.002574528323240507
aF0.004284625260273376
aF0.004284625260273376
aF0.001497004108470263
aF0.002162695875661582
aF0.002162695875661582
aF0.004174310870831096
aF0.004174310870831096
aF0.0004805536255709018
aF0.0004805536255709018
aF0.0020040799137801507
aF0.0020040799137801507
aF0.0030016581587902426
aF0.0030016581587902426
aF0.002880707502360168
aF0.002880707502360168
aF0.0014464247497683806
aF0.0014464247497683806
aF0.004930448435365072
aF0.0018199466150625294
aF0.0018199466150625294
aF0.003202590802479216
aF0.003202590802479216
aF0.0027112584668468284
aF0.0027112584668468284
aF0.0029358600261376114
aF0.0029358600261376114
aF0.00048094898427785896
aF0.00048094898427785896
aF0.002027795227348122
aF0.002027795227348122
aF0.002950916822443237
aF0.002950916822443237
aF0.0010624599883904183
aF0.0010624599883904183
aF0.0030482631578902996
aF0.0030482631578902996
aF0.0019186538139994136
aF0.0019186538139994136
aF0.006139080517536016
aF0.006139080517536016
aF0.0010908562799641492
aF0.0010908562799641492
aF0.0017651390599054135
aF0.0017651390599054135
aF0.0025018885836095655
aF0.0025018885836095655
aF0.0003736586868944431
aF0.0003736586868944431
aF0.0012189907829347672
aF0.0012189907829347672
aF0.0010997270644980568
aF0.0010997270644980568
aF0.0020190306311302177
aF0.0020190306311302177
aF0.0036643814613852342
aF0.0036643814613852342
aF0.004836106729018621
aF0.004836106729018621
aF0.004143945449870755
aF0.004143945449870755
aF0.0015158762234678998
aF0.0015158762234678998
aF0.0034290380866679343
aF0.0034290380866679343
aF0.0034829801784588047
aF0.0034829801784588047
aF0.0003310782031369433
aF0.0003310782031369433
aF0.004835915556324693
aF0.004835915556324693
aF0.0014441505009596008
aF0.0014441505009596008
aF0.004534673834906687
aF0.004534673834906687
aF0.0010150232292653698
aF0.0010150232292653698
aF0.0017538309167363913
aF0.004785393664017462
aF0.004785393664017462
aF0.0008039618530213594
aF0.0008039618530213594
aF0.0029710575051859704
aF0.0029710575051859704
aF0.0038083072609705177
aF0.0038083072609705177
aF0.001637137835805571
aF0.001637137835805571
aF0.0031753904979692354
aF0.0031753904979692354
aF0.004799412138806731
aF0.004799412138806731
aF0.002885742876315295
aF0.002885742876315295
aF0.007270402166242495
aF0.007270402166242495
aF0.0013424582170536324
aF0.0013424582170536324
aF0.00013213297065467141
aF0.00013213297065467141
aF1.7296927618695983e-05
aF1.7296927618695983e-05
aF0.0028977260228472447
aF0.0028977260228472447
aF0.003777455957996154
aF0.003777455957996154
aF7.25144242433915e-05
aF7.25144242433915e-05
aF0.00346484631740645
aF0.00346484631740645
aF0.007477765692785293
aF0.007477765692785293
aF0.0038597456003377347
aF0.0038597456003377347
aF0.0006049599311036788
aF0.0006049599311036788
aF0.002311509355585537
aF0.002311509355585537
aF0.0007788854710760584
aF0.0007788854710760584
aF0.0025538304383843163
aF0.0025538304383843163
aF0.005490271261689713
aF0.005490271261689713
aF0.0006499676476181109
aF0.0006499676476181109
aF0.0031412250821054133
aF0.0031412250821054133
aF0.005210003874679558
aF0.005210003874679558
aF0.0035017663512696296
aF0.0035017663512696296
aF0.00887060308229341
aF0.00887060308229341
aF0.0007453435792154473
aF0.0007453435792154473
aF0.002372364511913392
aF0.002372364511913392
aF0.005291203932846454
aF0.005291203932846454
aF0.0030786318446815856
aF0.0030786318446815856
aF0.003538676384168186
aF0.003538676384168186
aF0.003985506634969798
aF0.003985506634969798
aF0.0025709878184786645
aF0.0025709878184786645
aF0.006469475267913049
aF0.006469475267913049
aF0.005113332466673318
aF0.005113332466673318
aF0.001459166619196542
aF0.001459166619196542
aF0.0029968611523506733
aF0.0029968611523506733
aF0.0019981127341301384
aF0.0019981127341301384
aF0.002550382489163709
aF0.002550382489163709
aF0.004424654568885069
aF0.004424654568885069
aF0.00037250748649734664
aF0.00037250748649734664
aF0.0004548805720819833
aF0.0004548805720819833
aF0.00463923369705561
aF0.00463923369705561
aF0.0014114547290119935
aF0.0014114547290119935
aF0.0004632744978890707
aF0.0004632744978890707
aF0.0026880082985064066
aF0.0026880082985064066
aF0.0012086071283355048
aF0.0012086071283355048
aF0.002842238525987365
aF0.002842238525987365
aF0.0014460770786283888
aF0.0014460770786283888
aF0.0038122541944783693
aF0.0038122541944783693
aF0.0024634315282330084
aF0.0024634315282330084
aF0.004315554105901493
aF0.004315554105901493
aF0.0025339902595886555
aF0.0025339902595886555
aF0.005587536600996186
aF0.004987404544469169
aF0.004987404544469169
aF0.003021884883564671
aF0.004824880365415424
aF0.004824880365415424
aF0.002500157072046546
aF0.002500157072046546
aF0.0020104675813007915
aF0.0020104675813007915
aF0.0017519474430563859
aF0.0017519474430563859
aF0.0004379684498972243
aF0.0004379684498972243
aF0.001730618195638743
aF0.001730618195638743
aF0.005666461188450089
aF0.005666461188450089
aF0.0025340456920417784
aF0.0025340456920417784
aF0.004498589400879565
aF0.004498589400879565
aF0.0036182903606314636
aF0.0036182903606314636
aF0.0011230623036924332
aF0.0011230623036924332
aF0.002159378844025035
aF0.002159378844025035
aF0.0005777633848588084
aF0.0005777633848588084
aF5.139012982502685e-05
aF5.139012982502685e-05
aF0.0003023876779510548
aF0.0003023876779510548
aF0.0018805885765525502
aF0.0018805885765525502
aF0.003282940593461335
aF0.003282940593461335
aF0.001959673957111518
aF0.003377419236276281
aF0.003377419236276281
aF0.004786449753186312
aF0.004786449753186312
aF0.000578557749971162
aF0.000578557749971162
aF0.0010420066066851707
aF0.0010420066066851707
aF0.0017331938809974914
aF0.0017331938809974914
aF0.00035514343623675124
aF0.00035514343623675124
aF0.002682067934885936
aF0.002682067934885936
aF0.0015150145671304314
aF0.0015150145671304314
aF0.002927428749084598
aF0.002927428749084598
aF0.0015143489197964437
aF0.0015143489197964437
aF0.0032571484120543803
aF0.0032571484120543803
aF0.00014522025451590599
aF0.00014522025451590599
aF0.0019537239796880283
aF0.0019537239796880283
aF0.0026017132642234485
aF0.0026017132642234485
aF0.0027079207244819587
aF0.0027079207244819587
aF0.0014262933160767172
aF0.0014262933160767172
aF0.0016173647209254494
aF0.0016173647209254494
aF0.0011854094264248385
aF0.0011854094264248385
aF0.002283676894212803
aF0.002283676894212803
aF0.0004422782708416449
aF0.0004422782708416449
aF0.0013366337331426577
aF0.0013366337331426577
aF0.0017560002466615015
aF0.0017560002466615015
aF0.004743887688277305
aF0.004460144810757874
aF0.004460144810757874
aF0.0010449686791672529
aF0.00037499062601720494
aF0.000323581200434769
aF0.000323581200434769
aF0.001066871994881799
aF0.001066871994881799
aF0.001683154570013694
aF0.001683154570013694
aF0.0010494723883821056
aF0.0010494723883821056
aF0.0005647646833297318
aF0.0005647646833297318
aF6.782722884044268e-05
aF6.782722884044268e-05
aF0.00236254910348757
aF0.00236254910348757
aF0.0020018200284011582
aF0.0020018200284011582
aF0.0022592244956214673
aF0.0022592244956214673
aF0.001521941048118152
aF0.001521941048118152
aF0.0013507151828528006
aF0.0013507151828528006
aF0.0002939907118430878
aF0.0002939907118430878
aF0.0019020256856157897
aF0.0019020256856157897
aF0.0015766293869762774
aF0.004257240782581138
aF0.004257240782581138
aF0.0021103307676843303
aF0.0021103307676843303
aF0.0004377879374377769
aF0.0004377879374377769
aF0.0012749833179002217
aF0.0012749833179002217
aF0.0028064907028291274
aF0.0028064907028291274
aF0.0029561435185567067
aF0.0029561435185567067
aF0.001386002404667463
aF0.001386002404667463
aF0.0023414490922743078
aF0.0023414490922743078
aF0.0033559596131110614
aF0.0033559596131110614
aF0.0016649673990227236
aF0.0016649673990227236
aF0.0004227562138201339
aF0.0004227562138201339
aF0.0009450593033068917
aF0.0009450593033068917
aF0.0010409635029325754
aF0.0010409635029325754
aF8.26444567858232e-05
aF8.26444567858232e-05
aF0.003999435546064062
aF0.003999435546064062
aF0.005592904909914711
aF0.005592904909914711
aF0.002787898416016429
aF0.002787898416016429
aF0.0015037093771151353
aF0.0017825477152569246
aF0.0017825477152569246
aF0.0028600366904236825
aF0.0028600366904236825
aF0.004060105171570535
aF0.004060105171570535
aF0.0008091788532877582
aF0.0008091788532877582
aF0.0011857526927577726
aF0.0011857526927577726
aF0.00044825910684036366
aF0.00044825910684036366
aF0.00040486388968750676
aF0.00040486388968750676
aF0.0005472334555000127
aF0.0005472334555000127
aF0.0036052930354442594
aF0.0036052930354442594
aF0.0035389012060309095
aF0.0035389012060309095
aF0.00027767427314946523
aF0.00027767427314946523
aF0.0001539651442505338
aF0.0001539651442505338
aF0.0017935399280312795
aF0.0017935399280312795
aF0.0016611060494712783
aF0.0016611060494712783
aF0.0018925168502740557
aF0.0018925168502740557
aF0.001414774799593988
aF0.001414774799593988
aF0.0020266129319991624
aF0.0017096393169316081
aF0.0017096393169316081
aF0.003299096783091948
aF0.003299096783091948
aF0.002238855116817529
aF0.002238855116817529
aF0.003427161031463052
aF0.003427161031463052
aF0.005958891282222497
aF0.005958891282222497
aF0.0002751583363237027
aF0.0002751583363237027
aF0.005387962101414294
aF0.005387962101414294
aF0.0011971126991795233
aF0.0011971126991795233
aF0.0025871246591277104
aF0.0025871246591277104
aF0.0006275851141023553
aF0.0006275851141023553
aF0.0008606784295445006
aF0.0008606784295445006
aF0.0023217467985979547
aF0.0023217467985979547
aF0.0007437244671185245
aF0.0007437244671185245
aF0.00045988171488563136
aF0.00045988171488563136
aF0.0012173348090699476
aF0.0012173348090699476
aF0.001534736772294776
aF0.001534736772294776
aF0.003641756209687179
aF0.003641756209687179
aF0.0034488303407557127
aF0.0034488303407557127
aF0.0014642053817007278
aF0.0014642053817007278
aF0.00043604346850914457
aF0.00043604346850914457
aF0.0003250008561019684
aF0.00013186681298914122
aF0.00013186681298914122
aF0.003996450473590497
aF0.003996450473590497
aF0.004301284618756503
aF0.004301284618756503
aF0.002076619320300767
aF0.002076619320300767
aF0.003197424019102138
aF0.0006640731053115194
aF0.0006640731053115194
aF9.562462065732183e-05
aF9.562462065732183e-05
aF0.002818152986567251
aF0.0005500877666274135
aF0.0005500877666274135
aF0.005576111172591912
aF0.005576111172591912
aF0.0010643690887759355
aF0.0010643690887759355
aF0.0007258095831561722
aF0.0007258095831561722
aF0.003768392866020711
aF0.003768392866020711
aF0.0022589844410045574
aF0.0022589844410045574
aF0.003913426826433375
aF0.003913426826433375
aF0.0006490401245818984
aF0.0006490401245818984
aF0.0023603819216840793
aF0.0023603819216840793
aF0.0011872317729464113
aF0.0011872317729464113
aF0.0028501737810914976
aF0.0028501737810914976
aF0.0020424592721626205
aF0.0020424592721626205
aF0.0017020644466581843
aF0.0012558443426218412
aF0.0012558443426218412
aF0.001038846155090707
aF0.001038846155090707
aF0.0016364207228038168
aF0.0016364207228038168
aF0.00037048567351357183
aF0.00037048567351357183
aF0.000525612463307551
aF0.000525612463307551
aF0.0004103947277454847
aF0.0004103947277454847
aF0.006229096238385034
aF0.006229096238385034
aF0.001054237952358035
aF0.001054237952358035
aF0.0009821158356520822
aF0.0009821158356520822
aF0.0006741139690758593
aF0.0006741139690758593
aF0.0007878478295111337
aF0.0007878478295111337
aF0.0029205219031060515
aF0.0011767828963245913
aF0.0011767828963245913
aF0.002912266219064916
aF0.002912266219064916
aF0.00022012924324365192
aF0.00022012924324365192
aF3.370313735067559e-05
aF3.370313735067559e-05
aF0.0032513727706420196
aF0.0032513727706420196
aF0.00033705028641753756
aF0.00033705028641753756
aF0.0010728605313848486
aF0.0010728605313848486
aF0.0022776777120229615
aF0.0022776777120229615
aF0.004961054994463858
aF0.004961054994463858
aF0.000484398274007201
aF0.000484398274007201
aF0.00044477588189666535
aF0.00044477588189666535
aF0.0019266553546745937
aF0.0013113120053736972
aF0.0013113120053736972
aF0.00037558362437655054
aF0.00037558362437655054
aF0.0029574740845209504
aF0.0029574740845209504
aF0.0010556887990737476
aF0.0010556887990737476
aF0.0006823811489034987
aF0.0006823811489034987
aF0.00015150960188297014
aF0.00015150960188297014
aF0.002304734788738672
aF0.002304734788738672
aF0.002709691610144508
aF0.002709691610144508
aF0.0017961792063801137
aF0.0017961792063801137
aF0.0007019055964475611
aF0.0007019055964475611
aF0.005372962467419791
aF0.005372962467419791
aF0.0009510116329086325
aF0.0009510116329086325
aF0.0007646571457918003
aF0.0007646571457918003
aF0.0016274401125493515
aF0.0016274401125493515
aF0.0031407267337738584
aF0.0031407267337738584
aF0.0008090381021257864
aF0.0008090381021257864
aF0.0014821038989663526
aF0.0014821038989663526
aF0.0003892311349694113
aF0.0003892311349694113
aF0.0016652781986209568
aF0.0016652781986209568
aF0.0029560278098911823
aF0.0029560278098911823
aF0.003759413031304159
aF0.00019976288930670833
aF0.00019976288930670833
aF0.0028418164624605317
aF0.0028418164624605317
aF0.00027361396709954777
aF0.00027361396709954777
aF0.0019915160451015
aF0.0019915160451015
aF0.0018339761772707373
aF0.0018339761772707373
aF0.0019762078791632806
aF0.0019762078791632806
aF0.000963552220909085
aF0.000963552220909085
aF0.0005962852430391706
aF0.0005962852430391706
aF0.004813396836893852
aF0.004813396836893852
aF0.003689464507295591
aF0.003689464507295591
aF0.00012897866002128868
aF0.00012897866002128868
aF0.0006251597681476417
aF0.0006251597681476417
aF0.00045309891466170134
aF0.00045309891466170134
aF0.005179907865973
aF0.005179907865973
aF0.0023604179166150565
aF0.0023604179166150565
aF0.003145356492098893
aF0.003145356492098893
aF7.55388285617275e-06
aF7.55388285617275e-06
aF0.002890353120612345
aF0.002890353120612345
aF0.002649865986054553
aF0.002649865986054553
aF0.002477430008266582
aF0.0021951267064165333
aF0.0021951267064165333
aF0.00034759075877337475
aF0.00034759075877337475
aF0.0015800841602236838
aF0.0015800841602236838
aF4.518353189490449e-06
aF4.518353189490449e-06
aF0.0019860876675232174
aF0.001927463000687616
aF0.001927463000687616
aF0.0035842267462965964
aF0.0035842267462965964
aF0.0005680186255994544
aF0.0009300864032710126
aF0.0009300864032710126
aF0.0009429134107043797
aF0.0009429134107043797
aF0.0023941898788308095
aF0.0023941898788308095
aF0.0043291813415465
aF0.0043291813415465
aF0.001651627009654975
aF0.001651627009654975
aF0.0019235810658503466
aF0.0019235810658503466
aF0.001582395477977926
aF0.001582395477977926
aF0.0006086260978639454
aF0.0006086260978639454
aF0.001402923774657988
aF0.001402923774657988
aF0.0013853967681084483
aF0.0013853967681084483
aF0.00013036374415954154
aF0.00013036374415954154
aF0.004043103609300203
aF0.004043103609300203
aF0.0004662739878289746
aF0.0004662739878289746
aF0.00275812567056606
aF0.00275812567056606
aF0.0035952859827372056
aF0.0035952859827372056
aF0.002039166302554928
aF0.002039166302554928
aF0.0016757808092460864
aF0.0016757808092460864
aF0.002002095877459342
aF0.002002095877459342
aF0.0016242444911143143
aF0.0016242444911143143
aF0.0023402025316670047
aF0.0023402025316670047
aF0.0038558809551126373
aF0.0038558809551126373
aF0.00312587093689786
aF0.00312587093689786
aF0.0035639536919454427
aF0.0035639536919454427
aF0.00026358604655598314
aF0.00026358604655598314
aF0.00038059132712813784
aF0.00038059132712813784
aF0.0009296509661759107
aF0.0009296509661759107
aF0.003647984678852808
aF0.003647984678852808
aF0.0005505028208820074
aF0.0005505028208820074
aF0.0032726298829293446
aF0.0032726298829293446
aF0.0011373077527564615
aF0.0011373077527564615
aF0.00014083240818151194
aF0.00014083240818151194
aF0.00032090829311881244
aF0.00032090829311881244
aF2.883418654116704e-05
aF2.883418654116704e-05
aF0.00116963945802997
aF0.00116963945802997
aF0.0009983005896726255
aF0.0009983005896726255
aF0.00015838053179743807
aF0.00015838053179743807
aF0.0009343768811509855
aF0.0009343768811509855
aF0.001173249301481483
aF0.001173249301481483
aF0.0011690337570410513
aF0.0011690337570410513
aF0.0036365407400518516
aF0.0036365407400518516
aF0.00029666374435901834
aF0.00029666374435901834
aF0.0024622637899734032
aF0.0024622637899734032
aF0.001299680503075498
aF0.0027466712198704534
aF0.0027466712198704534
aF0.0001643565903472887
aF0.0001643565903472887
aF0.0023529591759854523
aF0.0023529591759854523
aF0.0038064780305010135
aF0.0038064780305010135
aF0.000336208959748891
aF0.000336208959748891
aF0.0023043437681864202
aF0.0023043437681864202
aF9.86519451020735e-05
aF9.86519451020735e-05
aF0.0015824912275691837
aF0.0015824912275691837
aF0.0007806849681585948
aF0.0007806849681585948
aF0.0020414071059082902
aF0.0020414071059082902
aF0.0023033125370767365
aF0.0023033125370767365
aF0.0012809460359917066
aF0.0012809460359917066
aF0.0017772865101842292
aF0.0017772865101842292
aF0.0008416156251791807
aF0.0008416156251791807
aF0.004271163915675534
aF0.004271163915675534
aF0.0011819117653398855
aF0.0011819117653398855
aF0.0028169981089950654
aF0.0028169981089950654
aF0.0009089345246243285
aF0.0009089345246243285
aF0.0016205295606241351
aF0.0016205295606241351
aF0.0019974628028701573
aF0.0019974628028701573
aF0.002800577641816626
aF0.002800577641816626
aF0.003463907434424495
aF0.003463907434424495
aF0.0006901791342855822
aF0.0006901791342855822
aF0.0005620867426185368
aF0.0005620867426185368
aF0.0027497005285006993
aF0.0027497005285006993
aF0.00045711460489258654
aF0.00045711460489258654
aF0.0019810953945501
aF0.0019810953945501
aF0.0013900573124817214
aF0.0013900573124817214
aF0.0016199869968188524
aF0.0016199869968188524
aF0.001497120525652871
aF0.001497120525652871
aF0.0003634582561385589
aF0.0003634582561385589
aF0.0016632289980671043
aF0.0016632289980671043
aF2.348128735803692e-05
aF2.348128735803692e-05
aF0.004019981073334139
aF0.004019981073334139
aF0.0012485003654961347
aF0.0012485003654961347
aF0.0038910567273451606
aF0.0038910567273451606
aF0.000576519916633222
aF0.000576519916633222
aF0.001354601828998993
aF0.001354601828998993
aF0.004224512230119056
aF0.004224512230119056
aF0.002470290193002673
aF0.002470290193002673
aF0.005414716110969828
aF0.005414716110969828
aF0.0005796483575549789
aF0.0005796483575549789
aF0.000762942314736178
aF0.000762942314736178
aF0.00015494916558137628
aF0.00015494916558137628
aF0.001563695482867257
aF0.001563695482867257
aF0.001424538448810143
aF0.001424538448810143
aF0.0006903934221509234
aF0.0006903934221509234
aF7.166012925161564e-05
aF7.166012925161564e-05
aF0.0009621464690749668
aF0.00048184595268941066
aF0.00048184595268941066
aF0.0016614450666286836
aF0.0016614450666286836
aF0.00016648888064549125
aF0.00016648888064549125
aF0.0043570906478491165
aF0.0043570906478491165
aF0.00022215943914341533
aF0.00022215943914341533
aF0.0028167897094632565
aF0.0028167897094632565
aF0.001969711089030448
aF0.001969711089030448
aF0.0009081771725321316
aF0.0009081771725321316
aF0.0004549189357143515
aF0.0004549189357143515
aF0.000521586699681077
aF0.000521586699681077
aF0.003378613492591201
aF0.003378613492591201
aF0.002582491789833244
aF0.002582491789833244
aF0.00026957349246140385
aF0.00026957349246140385
aF0.0016432048395902982
aF0.0016432048395902982
aF0.0026867622391788196
aF0.0026867622391788196
aF0.0006470194874832239
aF0.00048337900926440937
aF0.00048337900926440937
aF0.0005528083067419425
aF0.0005528083067419425
aF0.0017618328795286809
aF0.0017618328795286809
aF0.0008732063787637835
aF0.0008732063787637835
aF0.0026759634182594444
aF0.0026759634182594444
aF0.00010977077523009902
aF0.00010977077523009902
aF0.0005673296794378968
aF0.0005673296794378968
aF0.0013483018286238682
aF0.0013483018286238682
aF0.0009486641556182761
aF0.0009486641556182761
aF0.001772097107786402
aF0.001772097107786402
aF0.0006757618645646435
aF0.0006757618645646435
aF0.000492610309254115
aF0.000492610309254115
aF0.0012263473551590884
aF0.0016224294891355989
aF0.0016224294891355989
aF0.004442278931874108
aF0.004442278931874108
aF0.0012037580505555342
aF0.0012037580505555342
aF0.0035194140090483994
aF0.0035194140090483994
aF0.001077077817741776
aF0.001077077817741776
aF0.0007807431535611616
aF0.0007807431535611616
aF0.0018484099920854664
aF0.0018484099920854664
aF0.004307072836820867
aF0.004307072836820867
aF2.4994343645487695e-05
aF2.4994343645487695e-05
aF0.0033260043835122563
aF0.0033260043835122563
aF0.0007111612978873259
aF0.0007111612978873259
aF0.0033823081925513114
aF0.0033823081925513114
aF0.0015698177733163919
aF0.0015654100820359153
aF0.0015654100820359153
aF0.00030308245750170485
aF0.00030308245750170485
aF0.0004308339612014822
aF0.0004308339612014822
aF0.0019506396320197494
aF0.0019506396320197494
aF0.0034868489601246706
aF0.0034868489601246706
aF0.0024115789625703153
aF0.0024115789625703153
aF0.0018815827102811294
aF0.0018815827102811294
aF0.001081278946456846
aF0.001081278946456846
aF0.0015116598732578957
aF0.0015715144108025528
aF0.0015715144108025528
aF0.0004559921479449835
aF0.0004559921479449835
aF0.0021608623457953207
aF0.0021608623457953207
aF0.0016779121030087826
aF0.0016779121030087826
aF0.0017607619859128856
aF0.0017607619859128856
aF0.0003357788373802984
aF0.0003357788373802984
aF0.0027804030848952695
aF0.0005280901635032485
aF5.316281039713185e-05
aF5.316281039713185e-05
aF0.0024619941040575585
aF0.0005514273582065832
aF0.0005514273582065832
aF0.001990602598659525
aF0.001990602598659525
aF0.0024617944191823882
aF0.00248006418161406
aF0.0019795855958560037
aF0.0019795855958560037
aF0.0020829090961440094
aF0.0020829090961440094
aF0.001045071700003482
aF0.001045071700003482
aF0.0015738231126474667
aF0.0015738231126474667
aF0.0014505765244162195
aF0.0014505765244162195
aF0.003058954822477763
aF0.003058954822477763
aF0.0008267966653003614
aF0.0008267966653003614
aF0.0006355858710743592
aF0.0006355858710743592
aF0.0014665381526654019
aF0.0014665381526654019
aF8.80775511887867e-05
aF0.000491900165494134
aF0.000491900165494134
aF0.0019236212609309443
aF0.0019236212609309443
aF0.0009179484917057423
aF0.0009179484917057423
aF0.0031065421803015227
aF0.0031065421803015227
aF0.0010232655352498865
aF0.0010232655352498865
aF0.0012105998406043367
aF0.0012105998406043367
aF0.00011851857341882961
aF0.00011851857341882961
aF0.0016303675182367716
aF0.0016303675182367716
aF0.001409442748280337
aF0.001409442748280337
aF0.001968555954609317
aF0.001968555954609317
aF0.003372603995377851
aF0.003372603995377851
aF0.0014872570443874922
aF0.0014872570443874922
aF0.002014380673667328
aF0.002014380673667328
aF0.0004818778323871773
aF0.001999393114840378
aF0.001999393114840378
aF0.002744427314553949
aF0.002744427314553949
aF0.002323351184307666
aF0.002323351184307666
aF0.0017570632231963818
aF0.0017570632231963818
aF0.0006148972232266068
aF0.0006148972232266068
aF4.868562148735524e-06
aF4.868562148735524e-06
aF6.726555579428965e-05
aF6.726555579428965e-05
aF0.002242837227018268
aF0.002242837227018268
aF0.0006840838854038129
aF0.0006840838854038129
aF0.003879669160320592
aF0.003879669160320592
aF0.0004454746201048923
aF0.0004454746201048923
aF0.000563669196548213
aF0.0018647274697192661
aF0.0018647274697192661
aF0.0023342166525504747
aF0.0023342166525504747
aF0.004134078016458776
aF0.004134078016458776
aF0.0011437043279643418
aF0.0011437043279643418
aF0.0005670194799001628
aF0.0005670194799001628
aF0.0003503487877722976
aF0.0003503487877722976
aF0.003185972154574821
aF0.003185972154574821
aF0.001019961203985738
aF0.001019961203985738
aF0.0014552715853326861
aF0.0014552715853326861
aF0.0012861119884113226
aF0.0012861119884113226
aF0.0025442039532118607
aF0.0025442039532118607
aF0.0016339523960586795
aF0.0016339523960586795
aF0.001155514357425453
aF0.001155514357425453
aF0.0016882670457861245
aF0.0016882670457861245
aF0.001901017977062486
aF0.0009254577476386153
aF0.0007329321394854014
aF0.0007329321394854014
aF0.00046225521380922354
aF0.00046225521380922354
aF5.0011397826261e-05
aF5.0011397826261e-05
aF0.0005245007466266943
aF0.0005245007466266943
aF0.0008719669497498186
aF0.0008719669497498186
aF0.001231367844980379
aF0.001231367844980379
aF0.0004980832340924748
aF0.0004980832340924748
aF0.0002859444156646598
aF0.0002859444156646598
aF0.0024380206532100524
aF0.0024380206532100524
aF0.0013259857299193806
aF0.0013259857299193806
aF0.0013921813393988573
aF0.0013921813393988573
aF0.0009566547943798058
aF0.0009566547943798058
aF0.0018010260366895737
aF0.0018010260366895737
aF0.0002461575983036668
aF0.0002461575983036668
aF0.0017667134763927974
aF0.0017667134763927974
aF0.00016781679983384975
aF0.00016781679983384975
aF0.00019767248598999063
aF0.0012389544443083267
aF0.0012389544443083267
aF0.0003486350325715277
aF0.0003486350325715277
aF0.0011336672665551858
aF0.0011336672665551858
aF0.000509224559677334
aF0.000509224559677334
aF0.0019342793777837486
aF0.0019342793777837486
aF0.0010124414866308855
aF0.0010124414866308855
aF0.00033765782979960343
aF0.00033765782979960343
aF0.0016098858191485603
aF0.0016098858191485603
aF0.0010245821348614217
aF0.0010245821348614217
aF0.0008344963824725252
aF0.0008344963824725252
aF0.0004950827499750423
aF0.0004950827499750423
aF0.0007044603549950657
aF0.0007044603549950657
aF0.0003230911910539938
aF0.0003230911910539938
aF0.0009899300586167802
aF0.0009899300586167802
aF0.001426037777993544
aF0.001426037777993544
aF0.0008129665047353803
aF0.0008129665047353803
aF0.0005189504898089659
aF0.0005189504898089659
aF0.00123415224052986
aF0.0009510712165564245
aF0.00011134521288425082
aF0.00011134521288425082
aF9.056051353264752e-06
aF9.056051353264752e-06
aF0.00016226638463990244
aF0.00016226638463990244
aF0.0018303333215045601
aF0.00027128109236458674
aF0.00027128109236458674
aF0.00047463952312114255
aF0.00047463952312114255
aF0.0006070706781433814
aF0.0006070706781433814
aF0.0011011900896449726
aF0.0011011900896449726
aF0.0006066278071619823
aF0.0006066278071619823
aF0.0012739697003477295
aF0.0012739697003477295
aF0.0013153985050433164
aF0.0013153985050433164
aF0.00010317826043880989
aF0.00010317826043880989
aF1.4816835313869444e-05
aF1.4816835313869444e-05
aF0.00020159270883140493
aF0.00020159270883140493
aF0.00023661911565492583
aF0.00023661911565492583
aF3.4327024227526954e-06
aF3.4327024227526954e-06
aF0.0006280353926002687
aF0.0006280353926002687
aF0.0004736337056772467
aF0.0004736337056772467
aF0.003128539927852141
aF0.003128539927852141
aF0.0007423822905276664
aF0.0007423822905276664
aF0.0006451671477189496
aF0.0006451671477189496
aF0.0002931996386586368
aF0.0002931996386586368
aF0.0010337688286187329
aF0.0010337688286187329
aF0.0014726760875608807
aF0.0014726760875608807
aF0.0007038839483672069
aF0.0007038839483672069
aF0.001740331105479838
aF0.001740331105479838
aF0.0006068377057590158
aF0.0006068377057590158
aF0.0007721597239953215
aF0.0007721597239953215
aF0.00044874648158291436
aF0.00044874648158291436
aF0.0007271192539068412
aF0.0007271192539068412
aF0.0014297524220820792
aF0.0014297524220820792
aF0.0007107823358837755
aF0.0007107823358837755
aF8.932167382614552e-05
aF8.932167382614552e-05
aF0.0007063478873563261
aF0.0007063478873563261
aF0.0012128531046726872
aF0.0012128531046726872
aF0.00010131174597401015
aF0.00010131174597401015
aF0.0005740308646407394
aF0.0005740308646407394
aF0.0017868002684969131
aF0.0017868002684969131
aF0.0007538027436516625
aF0.0007538027436516625
aF0.0005451365148858179
aF0.0005451365148858179
aF0.00018847579124244858
aF0.00018847579124244858
aF0.0007057442770986642
aF0.0007057442770986642
aF0.0011032442198246652
aF0.0011032442198246652
aF0.00011657013191423707
aF0.00011657013191423707
aF0.0002947732697585277
aF0.0002947732697585277
aF0.0008316371513025805
aF0.0008316371513025805
aF0.0010590238358984536
aF0.0010590238358984536
aF0.0016148456841071238
aF0.0016148456841071238
aF0.000187131056460716
aF0.000187131056460716
aF0.0021174448662388467
aF0.0021174448662388467
aF0.0001618861703774733
aF0.0001618861703774733
aF0.0007394164725790172
aF0.0007394164725790172
aF0.00040637557807092614
aF0.00040637557807092614
aF0.00017052680571233995
aF0.00017052680571233995
aF0.0004173027932954077
aF0.0004173027932954077
aF0.0018582712165704685
aF0.0018582712165704685
aF0.0014529526701812974
aF0.0014529526701812974
aF0.0010733428954368465
aF0.0010733428954368465
aF0.0003933897689729487
aF0.0003933897689729487
aF0.001649639235721055
aF0.001649639235721055
aF0.0005235781062067114
aF0.0005235781062067114
aF0.000780450562683714
aF0.000780450562683714
aF5.94698364961622e-05
aF5.94698364961622e-05
aF0.00023694264517752582
aF0.00023694264517752582
aF0.0001559587136698177
aF0.0001559587136698177
aF0.0002750490562595686
aF0.00021970793533527262
aF0.00021970793533527262
aF2.770392343409457e-05
aF2.770392343409457e-05
aF0.000712737274214077
aF0.000712737274214077
aF0.001972249871903795
aF0.001972249871903795
aF0.0005754555464193506
aF0.0005754555464193506
aF7.153716820475683e-05
aF7.153716820475683e-05
aF0.00013350463096141918
aF0.00013350463096141918
aF0.0007580973381100432
aF0.0007580973381100432
aF0.002199304285435254
aF0.0016449865151781133
aF0.0016449865151781133
aF0.0012602664018541358
aF0.0012602664018541358
aF2.387163567818121e-05
aF2.387163567818121e-05
aF0.0005787973478231156
aF0.0005787973478231156
aF0.0002525446602480992
aF0.0002525446602480992
aF5.215509195695341e-05
aF5.215509195695341e-05
aF0.0006452314050724373
aF0.0006452314050724373
aF0.0012205506321157453
aF0.0012205506321157453
aF0.0007147690929260679
aF0.0007147690929260679
aF0.0006847905861334499
aF0.0006847905861334499
aF0.0003470037677373606
aF0.0003470037677373606
aF0.0001800741197279485
aF0.0001800741197279485
aF0.0008252772064137027
aF0.0008252772064137027
aF0.0006148788678853721
aF0.0006148788678853721
aF0.00026711482525455246
aF0.00026711482525455246
aF0.00015354700392615646
aF0.00015354700392615646
aF0.0009462765293296828
aF0.0009462765293296828
aF0.0009459473585701417
aF0.0009459473585701417
aF0.0005655731982919195
aF0.0005655731982919195
aF0.0008816520529952497
aF0.0008816520529952497
aF0.0008139874072192798
aF0.0008139874072192798
aF0.0005723611783886381
aF0.0005723611783886381
aF0.0009069602599053834
aF0.0009069602599053834
aF0.00014272877068821556
aF0.00014272877068821556
aF0.0010860670882998776
aF0.0010860670882998776
aF0.00039899353750523286
aF0.00039899353750523286
aF0.0008902656315894483
aF0.0006833208894802104
aF0.0006833208894802104
aF0.0005046010740268191
aF0.0005046010740268191
aF0.0003945025970476642
aF0.0003945025970476642
aF0.0012641358955674462
aF0.0012641358955674462
aF0.0007066636049141494
aF0.0007066636049141494
aF0.0007260349622995794
aF0.0007260349622995794
aF0.00047551798730005335
aF0.00047551798730005335
aF0.0017052240945020537
aF0.0017052240945020537
aF0.0008561499530331178
aF0.0008561499530331178
aF0.001524870176642592
aF0.001524870176642592
aF0.0008029219982803293
aF0.00019511102142333957
aF0.00019511102142333957
aF0.0009518054318225365
aF0.0009518054318225365
aF0.0005378179874271986
aF0.0005378179874271986
aF0.001481517132302706
aF0.001481517132302706
aF0.0001777263834174627
aF0.0001777263834174627
aF0.0008977641913093215
aF0.0008977641913093215
aF0.0006338555510195892
aF0.0006338555510195892
aF0.0010424115948965312
aF0.00040407592922132954
aF0.00040407592922132954
aF0.0010832147582897989
aF0.0010832147582897989
aF5.949188339651215e-05
aF5.949188339651215e-05
aF0.001598707916638681
aF0.001598707916638681
aF0.0011266836983464322
aF0.0011266836983464322
aF0.0007979943852191756
aF0.0007979943852191756
aF0.0006533742073520657
aF0.0006533742073520657
aF0.0016647066042978157
aF0.0016647066042978157
aF0.00043450984637764014
aF0.00043450984637764014
aF0.0007305244610458191
aF0.0007305244610458191
aF0.0013544533568697603
aF0.0013544533568697603
aF0.00030322704514010296
aF0.00030322704514010296
aF0.0010536158576954753
aF0.0010536158576954753
aF0.0020017089686694533
aF0.0020017089686694533
aF0.00031712373119967643
aF0.00031712373119967643
aF0.0010461407118037864
aF0.0010461407118037864
aF0.001092340283566881
aF0.001092340283566881
aF0.0015523970989256323
aF0.0015523970989256323
aF5.966076483522475e-05
aF5.966076483522475e-05
aF0.0019320346714644166
aF0.0006547195825770991
aF0.0006547195825770991
aF0.00047694238451352893
aF0.00047694238451352893
aF0.00044993408805530445
aF0.00044993408805530445
aF0.0001924811997118821
aF0.0001924811997118821
aF0.00014466930864523512
aF0.00014466930864523512
aF0.0007087238179725813
aF0.0007087238179725813
aF0.00024111908402590462
aF0.00024111908402590462
aF0.00037457356651559204
aF0.00037457356651559204
aF0.0008789180902236914
aF0.0008789180902236914
aF0.001357849178916842
aF0.001357849178916842
aF0.00024018667716341153
aF0.00024018667716341153
aF0.00015576585285276534
aF0.00015576585285276534
aF0.00032420439429708454
aF0.00032420439429708454
aF0.0010522941393700373
aF0.0010522941393700373
aF0.000996454118593769
aF0.000996454118593769
aF0.0011149010516822776
aF0.0011149010516822776
aF0.0004255603133201044
aF0.0004255603133201044
aF0.00022294200678517884
aF0.00022294200678517884
aF0.00201346469480456
aF0.00201346469480456
aF0.0005724685068938414
aF0.0005724685068938414
aF0.0007709532080832736
aF0.0007709532080832736
aF6.345705277062081e-05
aF6.345705277062081e-05
aF0.0014302087344042803
aF0.0014302087344042803
aF0.0009424894075618725
aF0.0009424894075618725
aF0.00045816745238553484
aF0.00045816745238553484
aF0.00034847045771224737
aF0.00034847045771224737
aF9.236361403878254e-05
aF9.236361403878254e-05
aF0.0014170788266340971
aF0.0014170788266340971
aF0.0001111456085337331
aF0.0001111456085337331
aF0.0001130422471352469
aF0.0001130422471352469
aF0.000434198256121412
aF0.000434198256121412
aF0.0002748056003060991
aF0.0002748056003060991
aF0.001554774238189591
aF0.001554774238189591
aF0.0012643168450118306
aF0.0012643168450118306
aF0.0008791286254925551
aF0.0008791286254925551
aF0.0007683404385627789
aF0.0007683404385627789
aF0.0012110829265154946
aF0.0012110829265154946
aF0.0009021210918166448
aF0.0009021210918166448
aF0.0007438831571083428
aF0.0007438831571083428
aF4.9062759084594714e-05
aF4.9062759084594714e-05
aF0.0007418004754476456
aF0.0007418004754476456
aF0.00018929205485846836
aF0.00018929205485846836
aF0.0004674289043713878
aF0.0004674289043713878
aF0.000398417729976223
aF0.000398417729976223
aF0.0019693590282356325
aF9.394923277695151e-05
aF9.394923277695151e-05
aF0.0005572656186527785
aF0.0005572656186527785
aF0.0015271493718326571
aF0.0015271493718326571
aF0.0006696084497814502
aF0.0006696084497814502
aF0.0003330968151303886
aF0.0003330968151303886
aF0.0006879521323583501
aF0.0006879521323583501
aF0.00029397377327930804
aF0.00029397377327930804
aF2.86571213937685e-05
aF2.86571213937685e-05
aF0.0013771239364013428
aF0.0013771239364013428
aF0.00034319096389293807
aF0.00034319096389293807
aF0.0022687074721257803
aF0.0022687074721257803
aF0.0017525678307465462
aF0.0017525678307465462
aF7.291553751524801e-05
aF7.291553751524801e-05
aF0.0011809480568935808
aF0.0011809480568935808
aF0.00029805583831569174
aF0.00029805583831569174
aF0.0005091446702396563
aF0.0005091446702396563
aF0.00024742892009082704
aF0.0002440017832623694
aF0.0002440017832623694
aF0.0004796972473094427
aF0.0004796972473094427
aF0.0005671846529689929
aF0.0005671846529689929
aF0.0003245550277696015
aF0.0003245550277696015
aF0.0006649453504470713
aF0.0006649453504470713
aF0.0005888342652320609
aF0.0005888342652320609
aF0.00045715215815381
aF0.00045715215815381
aF0.00012853702988563064
aF0.00012853702988563064
aF0.00294122036617842
aF0.00026666406940170054
aF0.00026666406940170054
aF0.0012864865836270192
aF0.0012864865836270192
aF0.001359703323529336
aF0.001359703323529336
aF0.0005795665114203661
aF0.0005795665114203661
aF0.0016078884715322959
aF0.0016078884715322959
aF7.590935355946916e-05
aF7.590935355946916e-05
aF0.0008233831089706074
aF0.0008233831089706074
aF0.0005428617711955476
aF0.0005428617711955476
aF0.0003730049698814778
aF0.0003730049698814778
aF0.00022216365288564688
aF0.00022216365288564688
aF0.00033821101099976077
aF0.00033821101099976077
aF0.00023919506043313188
aF0.00023919506043313188
aF2.234630171766628e-05
aF2.234630171766628e-05
aF0.0002892429886302463
aF0.0002892429886302463
aF0.000943671887542511
aF0.000943671887542511
aF0.0008181814589505658
aF0.0008181814589505658
aF0.00033100406609612947
aF0.0004861131199759596
aF0.0004861131199759596
aF0.0002029680597575644
aF0.0002029680597575644
aF0.0015019752764098048
aF0.0015019752764098048
aF0.0011281890827124328
aF0.0011281890827124328
aF0.00027936907247271773
aF0.00027936907247271773
aF0.000912717522623248
aF0.000912717522623248
aF0.0016982462100740246
aF0.0016982462100740246
aF0.0004785886371841436
aF0.0004785886371841436
aF0.0005883881797368087
aF0.0005883881797368087
aF3.147873192689215e-05
aF3.147873192689215e-05
aF4.8351241021121435e-05
aF0.0016821649169263542
aF0.0016821649169263542
aF0.00040656637978345184
aF0.00040656637978345184
aF0.0009349695376686144
aF0.0009349695376686144
aF0.0002694293781853346
aF0.0002694293781853346
aF0.0008108408302632852
aF0.0008108408302632852
aF0.00029753597701137076
aF0.00029753597701137076
aF0.001102555910292729
aF0.001102555910292729
aF0.0010423643660435373
aF0.0010423643660435373
aF0.0003320615203787593
aF0.0003320615203787593
aF0.0010721909118134806
aF0.0010721909118134806
aF0.0011979744840764342
aF0.0011979744840764342
aF0.00033174728655251877
aF0.00033174728655251877
aF0.0012887392976083968
aF0.0012887392976083968
aF0.00024431981687224737
aF0.00024431981687224737
aF0.0006148223438395121
aF0.0006148223438395121
aF0.0006678741983567766
aF0.0002508300481368203
aF0.0002508300481368203
aF0.00018831147770665668
aF0.00018831147770665668
aF5.9861718886702806e-05
aF5.9861718886702806e-05
aF0.001041198373216632
aF0.001041198373216632
aF0.0008421551043461088
aF0.0008421551043461088
aF0.0006485639313337783
aF0.0006485639313337783
aF0.0005562582587517225
aF0.0005562582587517225
aF0.0007105216053142952
aF0.0003788927261769402
aF0.0003788927261769402
aF0.0011097871388461575
aF0.0011097871388461575
aF0.000641923034951998
aF0.000641923034951998
aF7.576540178482244e-05
aF7.576540178482244e-05
aF0.0003591638425826516
aF0.0003591638425826516
aF0.000381120180654993
aF0.000381120180654993
aF0.00024611463514836746
aF0.00024611463514836746
aF0.0002092557221657366
aF0.0002092557221657366
aF0.0008583135820690697
aF0.0008583135820690697
aF1.6665788985833264e-05
aF1.6665788985833264e-05
aF0.0005436659302616221
aF0.0005436659302616221
aF0.00032896340479671995
aF0.00032896340479671995
aF0.0004764854049626473
aF0.0004764854049626473
aF0.00020862609384134228
aF0.00020862609384134228
aF0.0002682712811952973
aF0.0002682712811952973
aF0.00056527523146357
aF0.00056527523146357
aF0.00024210649501423925
aF0.00024210649501423925
aF0.0016180893084862204
aF0.0005045677174799879
aF0.0005045677174799879
aF4.2853657266878074e-05
aF4.2853657266878074e-05
aF0.00012491761681606106
aF0.00012491761681606106
aF2.7946826401451336e-05
aF2.7946826401451336e-05
aF0.0005467813084616991
aF0.0005467813084616991
aF0.0012792704153570952
aF0.0012792704153570952
aF0.00029260746022637216
aF0.00029260746022637216
aF0.0004058991323601441
aF0.0004058991323601441
aF0.00040718607763624766
aF0.00040718607763624766
aF1.3625372468135005e-06
aF1.3625372468135005e-06
aF0.001032351064145084
aF0.001032351064145084
aF0.0008231582859035176
aF0.0008231582859035176
aF0.0007177141303750245
aF0.0007177141303750245
aF0.0002738782078852831
aF0.0002738782078852831
aF0.00034392752766501276
aF0.00034392752766501276
aF1.2817863538556289e-05
aF1.2817863538556289e-05
aF0.0003695355396148376
aF0.0003695355396148376
aF0.0007927832855848668
aF0.0007927832855848668
aF0.0014626075498438073
aF0.0002344307175670563
aF0.0002344307175670563
aF0.0013709281857271875
aF0.0013709281857271875
aF0.0011941085003736097
aF0.00019040475859365762
aF0.00019040475859365762
aF0.0005754141707802891
aF0.0005754141707802891
aF4.4435778526778916e-05
aF4.4435778526778916e-05
aF0.00039331829482960255
aF0.00039331829482960255
aF8.816579976657596e-05
aF8.816579976657596e-05
aF0.00032625163900650375
aF0.00032625163900650375
aF0.0010996426076159455
aF0.0010996426076159455
aF0.0009638330327816616
aF0.0009638330327816616
aF0.0003131140342401067
aF0.0003131140342401067
aF0.00024187330729719304
aF0.00024187330729719304
aF0.0005752946750104803
aF0.0005752946750104803
aF0.0007508939242663072
aF0.0007508939242663072
aF0.0005463091974199914
aF0.0005463091974199914
aF0.0010248902126677
aF0.0010248902126677
aF0.0012340850793765147
aF0.0012340850793765147
aF0.0006576914747624107
aF0.0005555330926813201
aF0.0005555330926813201
aF0.000963767475992292
aF0.000963767475992292
aF0.000355288861396585
aF0.000355288861396585
aF0.0006390937696816204
aF0.0006390937696816204
aF0.00031653279248670116
aF0.00031653279248670116
aF0.0005438339886835971
aF0.0005438339886835971
aF0.00048562823044441533
aF0.00048562823044441533
aF0.0007073788319865007
aF0.0007073788319865007
aF0.0007281701852027085
aF0.0007281701852027085
aF6.656218963369135e-05
aF6.656218963369135e-05
aF0.00028235459312973306
aF0.00028235459312973306
aF0.0012215004294379357
aF0.000725627632936153
aF0.000725627632936153
aF0.0009038945080023326
aF0.0009038945080023326
aF4.267462466328494e-05
aF4.267462466328494e-05
aF0.000964401967115367
aF0.000964401967115367
aF0.00016522875064815985
aF0.00016522875064815985
aF0.0005543009201277082
aF0.0005543009201277082
aF0.000673104332513686
aF0.000673104332513686
aF0.0006575238892603367
aF0.0006575238892603367
aF0.002070647226517621
aF0.0005830079003148297
aF0.0005830079003148297
aF0.0013458871319602902
aF0.0013458871319602902
aF7.60655921625389e-06
aF7.60655921625389e-06
aF0.0002396971739559758
aF0.0002396971739559758
aF0.00018381282386922297
aF0.00018381282386922297
aF6.408674990592228e-05
aF6.408674990592228e-05
aF0.0001836646546226687
aF0.0001836646546226687
aF0.0005477648559103731
aF0.0005477648559103731
aF0.0006194429622128375
aF0.0006194429622128375
aF0.0006426727399851512
aF0.0006426727399851512
aF0.0009249820768418146
aF0.0009249820768418146
aF0.0020623677180769055
aF0.0020623677180769055
aF0.0007244868663060771
aF0.0011639804577993178
aF0.0011639804577993178
aF0.0008584088933912416
aF0.0008584088933912416
aF0.00020413877105479033
aF0.00020413877105479033
aF0.00017778786526162396
aF0.00017778786526162396
aF0.000564757732487337
aF0.000564757732487337
aF0.0024037577666348345
aF0.00046594864400335584
aF0.00046594864400335584
aF0.0007351628508461777
aF0.0007351628508461777
aF0.0009892679960348204
aF0.0009892679960348204
aF0.0018963696475366746
aF0.0018963696475366746
aF0.00016458215417984703
aF0.00016458215417984703
aF0.0002850227457954211
aF0.0002850227457954211
aF0.0007869329739480226
aF0.0007869329739480226
aF0.0002689398640856719
aF0.0002689398640856719
aF0.0019475238083352957
aF0.0019475238083352957
aF0.0011758319545563177
aF0.0011758319545563177
aF0.00045012155919446574
aF0.00045012155919446574
aF1.0577142390610952e-05
aF1.0577142390610952e-05
aF0.0008513383650770991
aF0.0008513383650770991
aF0.00023137206701368828
aF0.00023137206701368828
aF0.0009645331358831084
aF0.0009645331358831084
aF0.0012759369488475625
aF0.0005764580539978942
aF0.0005764580539978942
aF0.00020388109169538102
aF0.00020388109169538102
aF0.00012917995840281752
aF0.00012917995840281752
aF0.0010809446522960806
aF0.0010809446522960806
aF0.0014411470243890698
aF0.0014411470243890698
aF0.00011244743318509824
aF0.00011244743318509824
aF0.00040235959380952876
aF0.00040235959380952876
aF0.00022816423992010873
aF0.00022816423992010873
aF0.00011950946137812694
aF0.00011950946137812694
aF0.0007312667134030482
aF0.0007312667134030482
aF0.0002373141668474352
aF0.0002373141668474352
aF0.0002438631937765064
aF0.0002438631937765064
aF0.0008043375784069273
aF0.0008043375784069273
aF4.7106813319179385e-05
aF4.7106813319179385e-05
aF0.00031385176607156683
aF0.00031385176607156683
aF0.0012974650756185334
aF0.0012974650756185334
aF0.00047917404314585724
aF0.00047917404314585724
aF0.0004902283804027949
aF0.0004902283804027949
aF0.000675052796146939
aF0.000675052796146939
aF0.0006324824388138541
aF0.0006324824388138541
aF0.0011098257611972064
aF0.0011098257611972064
aF4.281998366605075e-05
aF4.281998366605075e-05
aF4.808200634447062e-05
aF0.0005078176748949038
aF0.0005078176748949038
aF0.00048821910996865974
aF0.00048821910996865974
aF0.000176069547603827
aF0.000176069547603827
aF0.0009062137518627913
aF0.0009062137518627913
aF0.00022675070803097514
aF0.00022675070803097514
aF0.0004295103830462218
aF0.0004295103830462218
aF4.422831449473408e-05
aF4.422831449473408e-05
aF0.00044102594797859607
aF0.00044102594797859607
aF0.0009443879920103744
aF0.0009443879920103744
aF0.0002072899353134441
aF0.0002072899353134441
aF0.0006849897085813399
aF0.0006849897085813399
aF7.061460598726622e-05
aF7.061460598726622e-05
aF0.0002705123939806411
aF0.0002705123939806411
aF0.0008210038922309986
aF0.0008210038922309986
aF0.0013840319033602624
aF0.0013840319033602624
aF0.0005228240882059967
aF0.0005228240882059967
aF0.0002253193213792288
aF0.0002253193213792288
aF0.00045217099679240085
aF0.00045217099679240085
aF0.0006636860362179809
aF0.0006636860362179809
aF0.0010110792504554567
aF0.0010110792504554567
aF0.0003369910204523884
aF0.0003369910204523884
aF0.0005903799654506471
aF0.0005903799654506471
aF7.970278405852256e-05
aF0.00044595340065477717
aF0.00044595340065477717
aF0.0004867681991766508
aF0.0004867681991766508
aF0.00012697380112115084
aF0.00012697380112115084
aF0.00015049090391800732
aF0.00015049090391800732
aF0.001012196627247619
aF0.001012196627247619
aF8.310988591577846e-05
aF8.310988591577846e-05
aF8.083265316752583e-05
aF8.083265316752583e-05
aF0.0006400744609904533
aF0.0006400744609904533
aF0.0003852646162541485
aF0.0003852646162541485
aF0.0011295138377128945
aF0.0011295138377128945
aF0.0004305257441356399
aF0.0004305257441356399
aF0.00011940441725053303
aF0.00011940441725053303
aF0.0010301326028636492
aF0.0010301326028636492
aF0.0007630413337992708
aF0.0007630413337992708
aF9.599629885625895e-05
aF9.599629885625895e-05
aF0.0001316094921212738
aF0.0001316094921212738
aF0.0011457495791149259
aF0.0011457495791149259
aF0.0005228381122469754
aF0.0005228381122469754
aF0.0005463594415356232
aF0.0005463594415356232
aF0.00011447878571058437
aF0.00011447878571058437
aF0.0008797228551524328
aF0.0005850533501021871
aF6.60984366031803e-05
aF6.60984366031803e-05
aF0.0006378239003411511
aF0.0006378239003411511
aF0.0006201009801937935
aF0.0006201009801937935
aF0.00033820597370829347
aF0.00033820597370829347
aF0.00020463716986709725
aF0.00020463716986709725
aF2.421819723687724e-05
aF2.421819723687724e-05
aF0.000645545506192026
aF0.000645545506192026
aF0.0009574929715336168
aF0.0009574929715336168
aF0.00013457007504498607
aF0.00013457007504498607
aF0.00028553516272517335
aF0.00028553516272517335
aF0.00027477220833194274
aF0.0004713478575255828
aF0.0004713478575255828
aF0.00043037521229405016
aF0.00043037521229405016
aF0.0010880453163344933
aF0.0010880453163344933
aF0.00013726069624960536
aF0.00013726069624960536
aF0.0001920571657499076
aF0.0001920571657499076
aF0.0003905117026399696
aF0.0003905117026399696
aF0.0011081985844950794
aF0.0005855535227063947
aF0.0005855535227063947
aF0.00020448354607062957
aF0.00020448354607062957
aF0.0006983468293017255
aF0.0006983468293017255
aF0.00043794103543015595
aF0.00043794103543015595
aF9.80413970283574e-06
aF9.80413970283574e-06
aF0.00034942385236500645
aF0.00034942385236500645
aF0.0009621869542023331
aF0.0009621869542023331
aF0.00032707246361142597
aF0.00032707246361142597
aF0.00018096362172585704
aF0.00018096362172585704
aF5.467894314085673e-05
aF5.467894314085673e-05
aF0.0006613097215767774
aF0.0006613097215767774
aF6.723390212242636e-05
aF6.723390212242636e-05
aF0.0005189610151506939
aF0.0005189610151506939
aF0.0005263179604928264
aF0.0005263179604928264
aF0.0010213059446311371
aF0.0010213059446311371
aF8.023516938935596e-05
aF8.023516938935596e-05
aF0.00010890243158709802
aF0.00010890243158709802
aF0.00013052832324027047
aF0.00013052832324027047
aF0.0003558283623352329
aF0.0003558283623352329
aF0.0001375220555181333
aF0.0001375220555181333
aF0.0004542891332184689
aF0.0004542891332184689
aF0.0002672468503388612
aF0.0006839541283907998
aF0.0006839541283907998
aF4.032608912325711e-05
aF4.032608912325711e-05
aF0.0008732645286056769
aF0.0008732645286056769
aF6.450174575408695e-05
aF6.450174575408695e-05
aF0.0005615238071980052
aF0.0005615238071980052
aF0.00022783206740092764
aF0.00022783206740092764
aF0.0005886104343428159
aF0.0005886104343428159
aF0.0007831931260123138
aF0.0007831931260123138
aF6.77563596067394e-05
aF6.77563596067394e-05
aF0.0005083803043104509
aF0.0005083803043104509
aF0.0005781117954482943
aF0.0005781117954482943
aF0.0007709768179400174
aF0.0007914669590751805
aF0.0007914669590751805
aF0.00041806902857017533
aF0.00041806902857017533
aF0.00027398281548371623
aF0.00027398281548371623
aF0.0005090897990716041
aF0.0005090897990716041
aF0.0005758768052067216
aF0.0005758768052067216
aF0.00016060545162912431
aF0.00016060545162912431
aF0.00013714562534054367
aF0.00013714562534054367
aF0.0005619378844420827
aF0.0007834358011094184
aF0.0007834358011094184
aF0.00035085697667420855
aF0.00035085697667420855
aF0.0005131680535336879
aF0.0005131680535336879
aF0.0006960198517546505
aF0.0006960198517546505
aF0.0003474468454225351
aF0.00016338923502552937
aF0.00016338923502552937
aF0.00045560072190698955
aF0.00045560072190698955
aF0.000442999372838842
aF0.000442999372838842
aF0.00051123781250628
aF0.00051123781250628
aF0.0007510244314149075
aF0.0008904892445654081
aF0.0008904892445654081
aF0.0019427824549841663
aF0.0019427824549841663
aF0.00019960362527125726
aF0.00019960362527125726
aF0.0007686487686944527
aF0.0007686487686944527
aF0.0003954643531912747
aF0.0003954643531912747
aF0.0005017813825769218
aF0.0005017813825769218
aF0.0006267787257464102
aF0.0006267787257464102
aF0.00034763164249165373
aF0.00034763164249165373
aF0.0003889333511356346
aF0.0003889333511356346
aF0.0005136939499399268
aF0.0003042555957730488
aF0.0003042555957730488
aF3.353503796083567e-05
aF3.353503796083567e-05
aF0.0007606393590143099
aF0.0007606393590143099
aF0.00027677793693339146
aF0.00027677793693339146
aF0.00012134099795043593
aF0.00012134099795043593
aF0.0007424794701964631
aF0.0007424794701964631
aF3.85356196185742e-05
aF3.85356196185742e-05
aF0.0005119435742949851
aF0.0005119435742949851
aF0.0004900987239689568
aF0.0004900987239689568
aF0.0003455546017188681
aF0.0003455546017188681
aF0.0006643418550346921
aF0.0006643418550346921
aF0.0009060048010104771
aF0.0009060048010104771
aF0.0005841412290655879
aF0.0005841412290655879
aF0.0006976688640570973
aF0.0006976688640570973
aF0.0008276543122330842
aF0.0008276543122330842
aF0.00038993327436839917
aF0.00038993327436839917
aF0.00011352891335281867
aF0.00011352891335281867
aF0.00032918205326765414
aF0.00032918205326765414
aF2.709090365361936e-06
aF2.709090365361936e-06
aF0.000608695556642997
aF0.000608695556642997
aF0.000674832746570394
aF0.000674832746570394
aF0.0010478120508672188
aF0.0010478120508672188
aF0.00020044309645440874
aF0.00024170164429036846
aF0.00024170164429036846
aF0.0003834258369422092
aF0.0003834258369422092
aF0.0015651126553775237
aF0.0015651126553775237
aF7.318666512088879e-05
aF0.0007913154899478601
aF0.0007913154899478601
aF0.0009919803825364267
aF0.0009919803825364267
aF0.0004554895940930798
aF0.0004554895940930798
aF0.0002987037975951304
aF0.0002987037975951304
aF0.0012971594508780178
aF0.0012971594508780178
aF0.0003149190437508644
aF0.0003149190437508644
aF0.0008689877543625956
aF0.0008689877543625956
aF8.2859306400253e-05
aF8.2859306400253e-05
aF9.697626420884964e-05
aF9.697626420884964e-05
aF0.0008781729130396308
aF0.0008781729130396308
aF0.000104809186515236
aF0.000104809186515236
aF0.0003481104488963556
aF0.0003481104488963556
aF0.00026555705441918826
aF0.00026555705441918826
aF0.0001733649913065679
aF0.0001733649913065679
aF0.0005405337528244488
aF0.0005405337528244488
aF9.402003518581322e-05
aF9.402003518581322e-05
aF0.0006548713790242071
aF0.0006548713790242071
aF4.0598248882512384e-05
aF4.0598248882512384e-05
aF0.0009374616536894728
aF0.0009374616536894728
aF0.00015504361222874947
aF0.00015504361222874947
aF0.0008343747018426796
aF0.0008343747018426796
aF0.00020575437749314739
aF0.00020575437749314739
aF0.00018286834916066502
aF0.00018286834916066502
aF0.0002775426902674294
aF0.0002775426902674294
aF0.00041600434351395197
aF0.00041600434351395197
aF4.5169210445623464e-06
aF4.5169210445623464e-06
aF0.00021433017715675914
aF0.00021433017715675914
aF6.710344671739644e-05
aF6.710344671739644e-05
aF0.0004881787714825033
aF0.0004881787714825033
aF0.0005123072789537488
aF0.0005123072789537488
aF0.0005489118424786966
aF0.00023313022796430733
aF0.00023313022796430733
aF1.944193654146299e-06
aF1.944193654146299e-06
aF0.0002253693794784816
aF0.0002253693794784816
aF0.000173495938556185
aF0.000173495938556185
aF0.0005043873688648764
aF0.0005043873688648764
aF0.00016844120369328218
aF0.00016844120369328218
aF0.00044817028321462966
aF0.00044817028321462966
aF5.666805293618248e-05
aF5.666805293618248e-05
aF0.001486219884387369
aF0.00166944648633097
aF0.0004684941836984193
aF0.0004684941836984193
aF0.0003155774981341564
aF0.0003155774981341564
aF0.0004067183066331861
aF0.0004067183066331861
aF0.00015778773382957425
aF0.00015778773382957425
aF0.0002891429718065666
aF0.0002891429718065666
aF0.0005310822975023236
aF0.0012537001799028343
aF0.0012537001799028343
aF0.00022342076492074285
aF0.00022342076492074285
aF0.00012000852435846792
aF0.00012000852435846792
aF0.0003539808851470275
aF0.0003539808851470275
aF0.0002868595145206739
aF0.0002868595145206739
aF0.0008989031510543528
aF0.0008989031510543528
aF0.0002045115591122541
aF0.0002045115591122541
aF3.973412041749012e-05
aF3.973412041749012e-05
aF0.00021722793290036816
aF0.00021722793290036816
aF9.526318408642105e-05
aF9.526318408642105e-05
aF0.0005315794781611019
aF0.0005315794781611019
aF0.00015283604914048817
aF0.00015283604914048817
aF0.00024992238906362276
aF0.00024992238906362276
aF1.669722917719679e-05
aF1.669722917719679e-05
aF0.00017467183930930952
aF0.00017467183930930952
aF0.0001830284759268492
aF0.0001830284759268492
aF0.0003077886350692532
aF0.00010572290683037074
aF0.00010572290683037074
aF0.00018094317809094342
aF0.00018094317809094342
aF4.768445235299277e-05
aF4.768445235299277e-05
aF0.00035464421120108363
aF0.00035464421120108363
aF0.00027827026506662523
aF0.00027827026506662523
aF0.00036216607353089446
aF0.00036216607353089446
aF0.0003816145156632978
aF0.0003816145156632978
aF0.00032626522890462405
aF0.00032626522890462405
aF4.2166981846100214e-05
aF4.2166981846100214e-05
aF0.0003488351931925432
aF0.0003488351931925432
aF0.0006837938896912999
aF0.0006837938896912999
aF0.00048698946818425824
aF0.00048698946818425824
aF0.00045950765967664345
aF0.00045950765967664345
aF0.00015652038440520802
aF0.00015652038440520802
aF0.00041779850090503575
aF0.00041779850090503575
aF0.0005410661230447679
aF0.0005410661230447679
aF0.0004765419760782649
aF0.0006225016826245167
aF0.0006225016826245167
aF0.00022361951625114352
aF0.00022361951625114352
aF0.0009189473924482376
aF0.0009189473924482376
aF0.00032119984460190164
aF0.00032119984460190164
aF0.0005745217699712414
aF0.0005745217699712414
aF0.00031333243259314646
aF0.00031333243259314646
aF0.0003716436881587649
aF0.0003716436881587649
aF0.00031303175753377845
aF0.00031303175753377845
aF0.0003154030755744241
aF0.0003154030755744241
aF0.00011786539809360162
aF0.0003336841866602231
aF0.0003336841866602231
aF0.00038978697538197184
aF0.00038978697538197184
aF0.0007677396807537419
aF0.0007677396807537419
aF0.0001626991879589813
aF0.0002581080725007294
aF0.0002581080725007294
aF0.0010208628910369577
aF0.0010208628910369577
aF0.000574489023327365
aF0.000574489023327365
aF0.000391012253500884
aF0.000391012253500884
aF0.00023958515609381165
aF0.00023958515609381165
aF0.0003243868352916593
aF0.0003243868352916593
aF0.0003986206041215078
aF0.0003986206041215078
aF0.0006719326254278063
aF0.0006719326254278063
aF0.0006012510801421887
aF0.0006012510801421887
aF0.0005908899792985095
aF0.0005908899792985095
aF0.0007272184132445528
aF0.0007272184132445528
aF0.0009065847928915256
aF0.0009065847928915256
aF0.000643347941831928
aF0.000643347941831928
aF0.0006308621141065241
aF0.0006308621141065241
aF0.000386317485690606
aF0.000386317485690606
aF0.0005665051451716143
aF0.0005665051451716143
aF3.62268273649834e-05
aF3.62268273649834e-05
aF0.0018792677357953832
aF0.0018792677357953832
aF0.0011562313308505108
aF0.0011562313308505108
aF0.0006342703283649244
aF0.0006342703283649244
aF0.0016693026741876947
aF0.0016693026741876947
aF0.0006849661414494543
aF0.0006849661414494543
aF0.0002648887313924075
aF0.0002648887313924075
aF0.0002697767883112977
aF0.0002697767883112977
aF0.0006072296817909398
aF0.0006072296817909398
aF0.00039792362707828416
aF0.00039792362707828416
aF0.0003768095877261658
aF0.0003768095877261658
aF4.019645164317853e-05
aF4.019645164317853e-05
aF0.0008622299911466844
aF0.0008622299911466844
aF9.739500678957121e-05
aF9.739500678957121e-05
aF0.00047766340330063873
aF0.00047766340330063873
aF0.000743162642461334
aF0.000743162642461334
aF0.00011916914935911062
aF0.00011916914935911062
aF0.0009571049502059164
aF0.00016783232674944115
aF0.00016783232674944115
aF0.0009653678635479523
aF0.0009653678635479523
aF9.4678998888263e-05
aF9.4678998888263e-05
aF0.00023093990341945255
aF0.00023093990341945255
aF0.0001571567913533463
aF0.0001571567913533463
aF0.00035675905145394853
aF0.00035675905145394853
aF0.00021301180364225735
aF0.0006864768764072951
aF0.0006864768764072951
aF0.00011069472945024051
aF0.00011069472945024051
aF0.0003948199743325487
aF0.0003948199743325487
aF9.302097063368416e-05
aF9.302097063368416e-05
aF4.9297905223638824e-05
aF4.9297905223638824e-05
aF0.0006268262983840404
aF0.0006268262983840404
aF0.0004293059736522247
aF0.0004293059736522247
aF0.00022927843782460206
aF0.00022927843782460206
aF1.1570756795674703e-05
aF1.1570756795674703e-05
aF0.00010436790314849697
aF0.00010436790314849697
aF0.0011677479993520534
aF0.0011677479993520534
aF3.226567868531616e-05
aF3.226567868531616e-05
aF0.00013684180367912104
aF0.00013684180367912104
aF2.932541110552181e-05
aF2.932541110552181e-05
aF0.0006644921487216852
aF0.0006644921487216852
aF0.0005715293913821708
aF0.0005715293913821708
aF0.0006642835545557533
aF0.0006669308818416052
aF0.0006669308818416052
aF0.0008610127848176797
aF0.0003287862194430766
aF0.0003287862194430766
aF0.0006929684002660518
aF0.0006929684002660518
aF0.00014113920300803722
aF0.00014113920300803722
aF1.02765709179449e-05
aF1.02765709179449e-05
aF0.00045997571161127907
aF0.00045997571161127907
aF0.0006386694209411117
aF0.0006386694209411117
aF0.000359249497646366
aF0.000359249497646366
aF0.0010909397687860242
aF0.0002838719976731093
aF0.0002838719976731093
aF0.00015413893483554446
aF0.00015413893483554446
aF5.9457011391774795e-05
aF5.9457011391774795e-05
aF0.00017375235378312904
aF0.0006892797463725123
aF0.0006892797463725123
aF0.0003437760487310574
aF0.0003437760487310574
aF0.0004563476018001119
aF9.820335194966728e-05
aF9.820335194966728e-05
aF0.00010175600662435625
aF0.00010175600662435625
aF7.223970159089305e-05
aF7.223970159089305e-05
aF0.000192021584101765
aF0.000192021584101765
aF0.0006424718923238908
aF0.0006424718923238908
aF0.000561233723588248
aF0.000561233723588248
aF0.00028041754297471124
aF0.00028041754297471124
aF0.0007848573962967106
aF0.0007848573962967106
aF5.588928442271967e-05
aF5.588928442271967e-05
aF0.0002476824716162241
aF0.0002476824716162241
aF0.00028067675987577867
aF0.00028067675987577867
aF3.216779253442154e-05
aF3.216779253442154e-05
aF0.00026747805091362144
aF0.00026747805091362144
aF0.00015573611942437635
aF0.00015573611942437635
aF0.0001327294036811822
aF0.0001327294036811822
aF0.00019375400615362866
aF0.00019375400615362866
aF0.0002745002666664066
aF0.0002745002666664066
aF0.00013677527240718386
aF0.00013677527240718386
aF0.00017813388771293107
aF0.00017813388771293107
aF0.0002800644782553794
aF0.0002800644782553794
aF0.00010047051947119523
aF0.00010047051947119523
aF0.0003339747312777444
aF0.0003339747312777444
aF0.0005559187145801467
aF0.0005559187145801467
aF0.00024300846837997835
aF0.00024300846837997835
aF0.00014328957899540216
aF0.00014328957899540216
aF4.8703946882337706e-05
aF4.8703946882337706e-05
aF0.00020059655997165394
aF0.00020059655997165394
aF0.00011295880699194552
aF0.00011295880699194552
aF0.00023748820822341537
aF0.00023748820822341537
aF0.0003163126834662069
aF0.0003163126834662069
aF3.556275049813245e-05
aF3.556275049813245e-05
aF0.0003340842544850042
aF0.0003340842544850042
aF8.130721806812599e-05
aF8.130721806812599e-05
aF0.0002460618563514098
aF0.0002460618563514098
aF4.411768294597527e-05
aF4.411768294597527e-05
aF0.00019148734913807314
aF0.00019148734913807314
aF6.373865971376186e-05
aF6.373865971376186e-05
aF2.562730093189112e-06
aF2.562730093189112e-06
aF0.0002806681023486273
aF0.0002806681023486273
aF0.0006721902043829657
aF0.0006721902043829657
aF0.00017819265372292226
aF0.00017819265372292226
aF0.00011717355623567088
aF0.00011717355623567088
aF6.912047676957169e-05
aF6.912047676957169e-05
aF0.0004915037267724196
aF0.0004915037267724196
aF0.0003707835034067945
aF0.0003707835034067945
aF0.0004926131035732376
aF0.0004926131035732376
aF0.00022238000653693592
aF0.00022238000653693592
aF2.588254273367338e-05
aF2.588254273367338e-05
aF0.00026395229626149
aF0.00026395229626149
aF0.0006151712382175712
aF0.0006151712382175712
aF0.00012533080155816218
aF0.00012533080155816218
aF0.00020294430188474394
aF0.00020294430188474394
aF0.0003355796529772613
aF0.0002605761393489341
aF0.0002605761393489341
aF0.00013474698285459956
aF0.00013474698285459956
aF0.0002550309548944584
aF0.0002550309548944584
aF0.0003139813144914139
aF0.0003139813144914139
aF0.00037206517143118883
aF0.00037206517143118883
aF0.0006407818321368912
aF0.0006407818321368912
aF0.0005436987936024709
aF0.0005436987936024709
aF0.00010469659029174943
aF0.00010469659029174943
aF0.0003100343036074475
aF0.0003100343036074475
aF1.3058974431885092e-05
aF1.3058974431885092e-05
aF5.386540682435084e-05
aF5.386540682435084e-05
aF0.0009638418491596796
aF6.333340228702841e-05
aF6.333340228702841e-05
aF0.00016730299301280984
aF0.00016730299301280984
aF0.0004108479545393802
aF0.0004108479545393802
aF0.00012062922594897557
aF0.00012062922594897557
aF0.0009614508629948766
aF0.0009614508629948766
aF7.69357319025311e-05
aF7.69357319025311e-05
aF5.5891267569822836e-05
aF5.5891267569822836e-05
aF0.0001497296672931285
aF0.0001497296672931285
aF0.00048606433554476474
aF0.00048606433554476474
aF0.0002166052260976256
aF0.0002166052260976256
aF0.0005839595286785826
aF0.0005839595286785826
aF4.570518653783991e-05
aF4.570518653783991e-05
aF0.001024676706125148
aF0.001024676706125148
aF0.00021250918292119433
aF0.00021250918292119433
aF4.5624435487902686e-05
aF4.5624435487902686e-05
aF0.0003007443979837924
aF0.0003007443979837924
aF7.789608311411604e-05
aF7.789608311411604e-05
aF0.0004677103245040474
aF0.0004677103245040474
aF0.0002679771255362259
aF0.0002679771255362259
aF0.00018192152773556722
aF0.00018192152773556722
aF0.0006729323525181228
aF0.0006729323525181228
aF0.0002392291047853161
aF0.0002392291047853161
aF0.0006555746756197343
aF0.0006555746756197343
aF5.816278318507954e-05
aF5.816278318507954e-05
aF2.7575264002151974e-05
aF2.7575264002151974e-05
aF8.605587258533088e-05
aF8.605587258533088e-05
aF9.45308749281064e-05
aF9.45308749281064e-05
aF0.0010600974660101789
aF0.0010600974660101789
aF9.0534144471219e-05
aF9.0534144471219e-05
aF0.000656335791263599
aF0.000656335791263599
aF0.00010254074960424629
aF0.00010254074960424629
aF6.648506207509532e-05
aF6.648506207509532e-05
aF0.00015033919287248967
aF0.00015033919287248967
aF6.949832751626855e-05
aF0.0007055984147908082
aF0.0007055984147908082
aF0.0006352381217094902
aF0.0006352381217094902
aF9.204913582460625e-05
aF9.204913582460625e-05
aF0.0002975813308616167
aF0.0002975813308616167
aF0.0008790232837525328
aF0.000344135786582841
aF0.000344135786582841
aF0.00027919594592976056
aF0.00027919594592976056
aF0.0003254166684859137
aF0.0003254166684859137
aF0.00012388017091688103
aF0.00012388017091688103
aF0.0007293124742283287
aF0.0007293124742283287
aF0.00025431657796354696
aF0.00025431657796354696
aF0.00015426025944971746
aF0.00015426025944971746
aF0.00047514240282856056
aF0.00047514240282856056
aF0.0005969629905366268
aF0.0005969629905366268
aF0.0004946426525148281
aF0.0004946426525148281
aF0.0002474178544200174
aF0.0002474178544200174
aF0.0003775780050988349
aF0.0003775780050988349
aF0.00010337142327953769
aF0.00010337142327953769
aF0.0003055991060323518
aF0.0003055991060323518
aF0.00035632694425883087
aF0.0002259013980970129
aF0.0002259013980970129
aF2.7224021585268944e-05
aF2.7224021585268944e-05
aF0.0004213301148064974
aF0.0004213301148064974
aF0.00021905159867034577
aF0.00021905159867034577
aF0.0007558784235707324
aF0.0007558784235707324
aF0.0002020776910861347
aF0.0002020776910861347
aF0.00016608294513811825
aF0.00016608294513811825
aF0.0003993178661747792
aF0.0003993178661747792
aF5.477807591406295e-07
aF5.477807591406295e-07
aF0.0005982122853771295
aF0.0005982122853771295
aF0.00023858180133281756
aF0.00023858180133281756
aF0.0001311199617451791
aF0.0001311199617451791
aF0.00012512563241067907
aF0.00012512563241067907
aF2.1567012538625906e-06
aF2.1567012538625906e-06
aF6.997604496418592e-05
aF6.997604496418592e-05
aF0.00014778886147283563
aF0.00014778886147283563
aF0.0004525015761898281
aF0.0004525015761898281
aF7.419674212440896e-05
aF7.419674212440896e-05
aF5.324795078869837e-05
aF5.324795078869837e-05
aF0.00013063102301533947
aF0.00013063102301533947
aF0.000592423335246809
aF0.000592423335246809
aF5.51834545810987e-07
aF5.51834545810987e-07
aF0.00016363368256219093
aF0.00016363368256219093
aF0.0004536741463502165
aF0.0004536741463502165
aF0.0007107598545782952
aF9.427980398374015e-05
aF9.427980398374015e-05
aF0.0003354023534045934
aF0.0003354023534045934
aF4.216941557206186e-05
aF4.216941557206186e-05
aF0.00035620991386416426
aF0.00021999596821491838
aF0.00021999596821491838
aF0.00040416387507325217
aF0.00040416387507325217
aF6.259804109319285e-05
aF6.259804109319285e-05
aF0.0008382063698918492
aF0.00025167391818181395
aF0.0006972260723509939
aF0.0006972260723509939
aF0.0002332294005141893
aF0.0002332294005141893
aF0.00016111337745464488
aF0.00016111337745464488
aF0.0004536315189501591
aF0.0004536315189501591
aF4.058098854273054e-05
aF4.058098854273054e-05
aF8.544861366451913e-05
aF8.544861366451913e-05
aF0.0009278578569108158
aF0.00014967297995820275
aF0.00014967297995820275
aF0.0006174643308979829
aF0.0006174643308979829
aF9.133994605043689e-06
aF9.133994605043689e-06
aF6.642516456518574e-05
aF6.642516456518574e-05
aF3.491399421453484e-05
aF0.0005265251150190105
aF0.0005265251150190105
aF0.00011371008747438618
aF0.00011371008747438618
aF9.614776779016375e-05
aF9.614776779016375e-05
aF0.00044634652635658535
aF0.00044634652635658535
aF0.00020538073122318892
aF0.00020538073122318892
aF0.0002880954842158098
aF0.0002880954842158098
aF0.0003305318009799201
aF0.0003305318009799201
aF0.00015750325750869728
aF0.00015750325750869728
aF0.0007492240360091139
aF0.0007492240360091139
aF0.0007811191704392325
aF0.00014464441614170378
aF0.00014464441614170378
aF0.00026402628238654936
aF0.00026402628238654936
aF0.00011184919618832454
aF0.00011184919618832454
aF0.0009661458354709495
aF0.0009661458354709495
aF0.00032406696513230017
aF0.00032406696513230017
aF0.00028067607733439176
aF0.00028067607733439176
aF0.0002929870318098582
aF0.0002929870318098582
aF0.0004466642260412149
aF0.0004466642260412149
aF0.0005287084439907164
aF0.0005287084439907164
aF3.4102175518799764e-05
aF3.4102175518799764e-05
aF0.00027676886075936867
aF0.00027676886075936867
aF0.00041114802409106504
aF0.00041114802409106504
aF0.00020633127871949418
aF0.00020633127871949418
aF5.8689244448391874e-05
aF5.8689244448391874e-05
aF0.0002522382602985099
aF0.00011140661159705826
aF0.00011140661159705826
aF4.648844142483865e-05
aF4.648844142483865e-05
aF0.0007627666952637263
aF0.0007627666952637263
aF0.00015279524217989184
aF0.00015279524217989184
aF0.0001501664010422887
aF0.0001501664010422887
aF0.0007739053736737375
aF0.0001382468897597172
aF0.0001382468897597172
aF0.00021039048906190222
aF0.00021039048906190222
aF0.0001283633107703717
aF0.0001283633107703717
aF0.0001508643255502092
aF0.0001508643255502092
aF0.000554813573879991
aF0.0002891023984603013
aF1.4478941527240772e-05
aF1.4478941527240772e-05
aF0.00021709141610430356
aF0.00021709141610430356
aF7.396280681027608e-05
aF7.396280681027608e-05
aF0.00015101285803630426
aF0.00015101285803630426
aF6.263102751365108e-05
aF6.263102751365108e-05
aF0.0001731016305130031
aF0.0001731016305130031
aF0.000368650335581147
aF0.0002505405100288399
aF0.0002505405100288399
aF0.00015697321460318288
aF0.0003303823105476554
aF0.0003303823105476554
aF0.00024278147979438046
aF0.0002202158411856883
aF0.0002202158411856883
aF0.0002230644541253854
aF0.0002230644541253854
aF6.984985127970676e-05
aF6.984985127970676e-05
aF5.9867690970437505e-05
aF0.0001241168842155721
aF0.0001241168842155721
aF0.00020211209728881376
aF0.00020211209728881376
aF0.0003795524396142038
aF0.00013556606381336824
aF0.00013556606381336824
aF4.609460666713022e-05
aF4.609460666713022e-05
aF0.0002844426086797386
aF0.0001473620916905255
aF0.0001473620916905255
aF0.0003322434684728961
aF0.00012072764617706087
aF0.00012072764617706087
aF2.2860202454147235e-05
aF1.0703301041693534e-05
aF1.0703301041693534e-05
aF0.000398423610808053
aF0.000398423610808053
aF4.25669323798814e-05
aF4.25669323798814e-05
aF0.00027202700539537565
aF0.0002842114122384634
aF0.00024032595355515639
aF0.00024032595355515639
aF0.00013731630348682642
aF0.00013731630348682642
aF6.754978730594171e-05
aF6.754978730594171e-05
aF0.00015614443779595757
aF0.00015614443779595757
aF0.00013868160522346012
aF0.00013868160522346012
aF0.00015572104952535262
aF0.00015572104952535262
aF9.34749566502355e-06
aF7.415471079237484e-05
aF7.415471079237484e-05
aF5.920542381037466e-05
aF5.920542381037466e-05
aF0.0001712169298032396
aF0.0001712169298032396
aF9.382634839694407e-05
aF9.382634839694407e-05
aF1.8863120397920507e-05
aF1.8863120397920507e-05
aF6.467008563281126e-05
aF6.467008563281126e-05
aF0.00015522473654904734
aF0.00015522473654904734
aF1.6820677942784327e-05
aF1.6820677942784327e-05
aF2.112246200242835e-05
aF2.112246200242835e-05
aF0.00014006114510923683
aF0.00014006114510923683
aF0.00015520849743837884
aF8.866580202247188e-05
aF0.00022920663573453554
aF0.00022920663573453554
aF0.0001000571774216753
aF0.00015543894932030714
aF0.00015543894932030714
aF0.00016312280859389583
aF0.00016312280859389583
aF4.540032051655498e-05
aF4.540032051655498e-05
aF0.00019823260628253428
aF2.2824423228419088e-05
aF2.2824423228419088e-05
aF0.00022130685755119558
aF0.0001847594704628843
aF0.0001847594704628843
aF0.00019998815132707003
aF0.00019998815132707003
aF7.792508668275151e-05
aF7.792508668275151e-05
aF0.00016582482772558958
aF0.00016582482772558958
aF0.000126565976081921
aF0.000126565976081921
aF0.00020008260433920712
aF0.00022143237137811555
aF0.00022143237137811555
aF4.22022131333529e-05
aF4.22022131333529e-05
aF0.00012521058687427317
aF0.00012521058687427317
aF7.888703921200839e-05
aF7.888703921200839e-05
aF0.0002150519676785442
aF0.0002150519676785442
aF6.912582059399424e-05
aF6.912582059399424e-05
aF0.00013774297795180441
aF0.00013774297795180441
aF8.53110635562999e-06
aF8.53110635562999e-06
aF3.641029579703298e-05
aF3.641029579703298e-05
aF0.00010511710312260814
aF0.00010511710312260814
aF8.51555812119385e-05
aF8.51555812119385e-05
aF7.762201635250161e-05
aF7.762201635250161e-05
aF0.00014263788652225349
aF0.00014263788652225349
aF3.802484345679575e-05
aF3.802484345679575e-05
aF9.059910363278304e-05
aF9.059910363278304e-05
aF7.79969056152744e-05
aF7.79969056152744e-05
aF0.00010196600989327035
aF0.00010287109227646851
aF0.00010287109227646851
aF0.00012821201068511626
aF0.00012821201068511626
aF9.609771079020585e-05
aF9.609771079020585e-05
aF3.7602295691418647e-05
aF3.7602295691418647e-05
aF0.0001474570667881611
aF0.0001474570667881611
aF8.755887646991343e-06
aF8.755887646991343e-06
aF2.9601398301430677e-07
aF2.9601398301430677e-07
aF7.3819578484905085e-06
aF7.3819578484905085e-06
aF2.657425516751598e-05
aF2.657425516751598e-05
aF0.00014054826130006443
aF0.00014054826130006443
aF4.366398579945764e-06
aF4.366398579945764e-06
aF4.610119587072059e-05
aF4.610119587072059e-05
aF4.7075794350609e-05
aF4.7075794350609e-05
aF5.6592113249495884e-05
aF5.6592113249495884e-05
aF0.00019006800551534921
aF0.00019006800551534921
aF1.8530827063658923e-05
aF1.8530827063658923e-05
aF2.806046280034468e-05
aF2.806046280034468e-05
aF3.12125608339794e-05
aF3.12125608339794e-05
aF0.00011249755250065745
aF0.00011249755250065745
aF8.80880818090957e-05
aF8.80880818090957e-05
aF6.334983594135548e-06
aF6.334983594135548e-06
aF1.373136766745685e-06
aF1.373136766745685e-06
aF0.00013732974740677696
aF0.00013732974740677696
aF0.00029382091111231106
aF9.979261412645503e-05
aF9.979261412645503e-05
aF0.00016329415524393685
aF0.00016329415524393685
aF0.00011208975992434868
aF0.00011208975992434868
aF0.00037902851653601356
aF0.00037902851653601356
aF1.0093753302809049e-05
aF1.0093753302809049e-05
aF0.0003053148956564835
aF0.0003053148956564835
aF4.200501071239876e-05
aF4.200501071239876e-05
aF0.00012220976508552054
aF0.00012220976508552054
aF7.296027083128336e-05
aF7.296027083128336e-05
aF0.00014100586334094746
aF0.00014100586334094746
aF0.00010753440316416585
aF0.00010753440316416585
aF2.2931035672912203e-05
aF2.2931035672912203e-05
aF2.7941897485338985e-05
aF2.7941897485338985e-05
aF6.676045978756611e-05
aF6.676045978756611e-05
aF0.0002065795701828451
aF0.0002065795701828451
aF1.2696438590775179e-05
aF1.2696438590775179e-05
aF0.00015290378998583914
aF0.00015290378998583914
aF4.031839832788144e-05
aF4.031839832788144e-05
aF6.93105387786628e-05
aF6.93105387786628e-05
aF0.0001015735455388874
aF0.0001015735455388874
aF4.4866162368686e-05
aF4.4866162368686e-05
aF7.642378151742414e-05
aF7.642378151742414e-05
aF3.280814324591337e-05
aF3.280814324591337e-05
aF9.894326005855321e-05
aF9.894326005855321e-05
aF0.00011941967517543812
aF0.00011941967517543812
aF8.825366331423131e-05
aF8.825366331423131e-05
aF0.0001436592509280248
aF0.0002142543681267745
aF0.0002142543681267745
aF2.86120201144996e-05
aF2.86120201144996e-05
aF9.14604887518973e-05
aF9.14604887518973e-05
aF5.3970788166128066e-05
aF0.00012754538636913578
aF0.00012754538636913578
aF2.563662658434512e-05
aF2.563662658434512e-05
aF2.7438691774485035e-06
aF2.7438691774485035e-06
aF0.00019586879961773704
aF0.00019586879961773704
aF9.811583447441091e-05
aF9.811583447441091e-05
aF2.4952971337466753e-05
aF2.4952971337466753e-05
aF1.0135413472274406e-05
aF1.0135413472274406e-05
aF6.480776481518298e-05
aF7.889779824415163e-06
aF7.889779824415163e-06
aF0.00015699646922434686
aF0.00015699646922434686
aF0.00015069082759117577
aF0.00015069082759117577
aF0.00014870152636728832
aF0.00014870152636728832
aF0.00011570726818442403
aF0.00011570726818442403
aF0.00021717141129255237
aF0.00021717141129255237
aF0.00021196079100560634
aF0.00021196079100560634
aF3.849578953115931e-05
aF3.849578953115931e-05
aF5.230170678696056e-05
aF5.230170678696056e-05
aF9.322786845217756e-05
aF9.322786845217756e-05
aF0.00016149919541268514
aF0.00016149919541268514
aF1.9311310596586176e-05
aF1.9311310596586176e-05
aF0.00012139160703765626
aF0.00012139160703765626
aF2.2745283130402952e-05
aF2.2745283130402952e-05
aF0.0003776977713209112
aF0.0003776977713209112
aF0.00019190119916614486
aF0.00019190119916614486
aF8.161137676385944e-05
aF8.161137676385944e-05
aF1.0328538553669457e-05
aF1.0328538553669457e-05
aF6.394883642958643e-06
aF6.394883642958643e-06
aF0.00022257108003754343
aF0.00022257108003754343
aF0.00025037088167995553
aF0.00025037088167995553
aF0.0003070608974004892
aF0.0003070608974004892
aF1.4609712957341592e-05
aF1.4609712957341592e-05
aF5.559136840899096e-05
aF5.559136840899096e-05
aF0.00013861733840750396
aF0.00013861733840750396
aF0.0001371862949422265
aF0.0001371862949422265
aF3.4220319084639395e-05
aF3.4220319084639395e-05
aF1.889633018738257e-05
aF1.889633018738257e-05
aF6.224729376409328e-05
aF6.224729376409328e-05
aF2.8859752889406633e-08
aF2.8859752889406633e-08
aF0.00020049985087000987
aF0.00020049985087000987
aF8.960348335488439e-05
aF8.960348335488439e-05
aF0.00013090389475437669
aF0.00013090389475437669
aF7.999579056334176e-05
aF7.999579056334176e-05
aF0.00017306178185289836
aF0.00017306178185289836
aF9.86943434419137e-05
aF9.86943434419137e-05
aF0.0003468475754858753
aF8.453689867562623e-05
aF8.453689867562623e-05
aF6.752295355951364e-05
aF6.752295355951364e-05
aF3.146626191510769e-05
aF9.20023746801297e-05
aF9.20023746801297e-05
aF9.453967471646552e-05
aF9.453967471646552e-05
aF6.300947216832648e-05
aF6.300947216832648e-05
aF0.00017790281219652975
aF0.00017790281219652975
aF2.9207674398554854e-05
aF2.9207674398554854e-05
aF7.033882641297229e-05
aF7.033882641297229e-05
aF3.3575099134748014e-05
aF3.3575099134748014e-05
aF7.335395481779133e-05
aF7.335395481779133e-05
aF8.69810409033064e-05
aF8.69810409033064e-05
aF7.659289420947912e-05
aF7.659289420947912e-05
aF0.00010336948672504843
aF0.00010336948672504843
aF0.0002979507969510407
aF0.0002979507969510407
aF6.72276993334743e-05
aF6.72276993334743e-05
aF4.039365275772242e-05
aF4.039365275772242e-05
aF0.0001799781422886413
aF0.0001799781422886413
aF9.087430247477819e-05
aF9.087430247477819e-05
aF0.00021064518755127876
aF4.7550034064559764e-05
aF4.7550034064559764e-05
aF7.70368516829646e-06
aF7.70368516829646e-06
aF4.06541140684472e-06
aF4.06541140684472e-06
aF0.00012256403877810505
aF0.00012256403877810505
aF0.00035511409505214347
aF0.00035511409505214347
aF5.879459696310353e-05
aF5.879459696310353e-05
aF0.00034157158736968255
aF0.00034157158736968255
aF6.455709713293495e-05
aF6.455709713293495e-05
aF8.179308637497011e-06
aF8.179308637497011e-06
aF6.77385696868149e-05
aF6.77385696868149e-05
aF0.00027630835016268196
aF0.00027630835016268196
aF4.261991688335905e-05
aF4.261991688335905e-05
aF0.0001717689980645404
aF1.1788249339865356e-05
aF1.1788249339865356e-05
aF0.00019366323422036072
aF0.00019366323422036072
aF9.018459965132038e-05
aF9.018459965132038e-05
aF4.31415006822846e-06
aF4.31415006822846e-06
aF3.0054579640394236e-05
aF3.0054579640394236e-05
aF0.00011999205095452678
aF0.00011999205095452678
aF0.00012859217487007176
aF0.00012859217487007176
aF0.00029765927918412024
aF4.3727484752654585e-05
aF4.3727484752654585e-05
aF0.0002517511151478521
aF0.0002517511151478521
aF0.00023575925720121127
aF3.46168426566196e-05
aF3.46168426566196e-05
aF0.0002197798192882265
aF1.1593535646774503e-05
aF1.1593535646774503e-05
aF2.2804376423437197e-05
aF2.2804376423437197e-05
aF0.00017837553855680615
aF0.00017837553855680615
aF2.997908934285609e-06
aF2.997908934285609e-06
aF9.549864915934318e-05
aF9.549864915934318e-05
aF0.00013058946375153473
aF1.617355501518406e-05
aF1.617355501518406e-05
aF0.0002558646151454017
aF0.0002558646151454017
aF5.788518039621881e-05
aF5.788518039621881e-05
aF0.0001059979513194908
aF0.0001928112216743223
aF0.0001928112216743223
aF0.00018447686217673676
aF0.00018447686217673676
aF0.00011187939958701859
aF0.00011187939958701859
aF3.301382442095464e-06
aF3.301382442095464e-06
aF0.00014144796661112063
aF0.00014144796661112063
aF2.850257046303871e-05
aF2.850257046303871e-05
aF4.008665042157081e-06
aF4.008665042157081e-06
aF2.5466330942297946e-05
aF2.5466330942297946e-05
aF4.492723301198383e-06
aF4.492723301198383e-06
aF0.0002574123827700785
aF0.0002574123827700785
aF0.00013171275449971263
aF0.00013171275449971263
aF8.224902396927355e-05
aF8.224902396927355e-05
aF0.00028791819759542794
aF0.00028791819759542794
aF3.172481434733236e-05
aF3.172481434733236e-05
aF0.00016713198620618084
aF0.00016713198620618084
aF0.00022236541732381676
aF0.00022236541732381676
aF0.00011442717312317019
aF0.00011442717312317019
aF0.00014943134637344934
aF0.00014943134637344934
aF2.399279527779285e-05
aF2.399279527779285e-05
aF0.00018719644959941883
aF0.0001149130937215843
aF0.0001149130937215843
aF0.0002116444119652444
aF0.0002116444119652444
aF9.032351233577069e-05
aF9.032351233577069e-05
aF9.831905326004215e-05
aF9.831905326004215e-05
aF0.000112571647891406
aF0.000112571647891406
aF0.0001009797462507059
aF0.0001009797462507059
aF5.080953838203143e-05
aF5.080953838203143e-05
aF4.0560156886353624e-05
aF4.0560156886353624e-05
aF0.000190049147902124
aF0.000190049147902124
aF0.000195591041612868
aF0.000195591041612868
aF8.790348150029594e-05
aF8.790348150029594e-05
aF8.15016277536508e-06
aF8.15016277536508e-06
aF7.851532262225231e-05
aF7.851532262225231e-05
aF7.314344218253268e-05
aF7.314344218253268e-05
aF0.00018439812112472918
aF0.00018439812112472918
aF6.295135810489864e-05
aF6.295135810489864e-05
aF0.0001767450111595391
aF0.0001767450111595391
aF4.669253738987817e-05
aF4.669253738987817e-05
aF9.773064475942067e-05
aF9.773064475942067e-05
aF0.000181356190394052
aF0.000181356190394052
aF3.557341670795856e-05
aF3.557341670795856e-05
aF5.1640878168241054e-05
aF5.1640878168241054e-05
aF8.627633830057608e-05
aF8.627633830057608e-05
aF0.0001049889715337165
aF0.0001049889715337165
aF0.00026279455137531574
aF0.00026279455137531574
aF0.00010475157995277317
aF0.00010475157995277317
aF2.5776136384686783e-05
aF7.411763595656387e-05
aF7.411763595656387e-05
aF2.911047999128503e-05
aF2.911047999128503e-05
aF0.00016685626757371956
aF0.00016685626757371956
aF0.0001777946155753851
aF0.0001777946155753851
aF0.00020267008190984486
aF0.00020267008190984486
aF0.00015647933582395106
aF0.0001635249174640584
aF4.9926392832239925e-06
aF4.9926392832239925e-06
aF0.00020064402978195708
aF0.00020064402978195708
aF0.00011358073129769504
aF0.00011358073129769504
aF5.101084155906528e-05
aF5.101084155906528e-05
aF7.752823207339169e-05
aF7.752823207339169e-05
aF8.345407729925305e-05
aF8.345407729925305e-05
aF6.395960830616389e-05
aF6.395960830616389e-05
aF8.321383872417802e-05
aF8.321383872417802e-05
aF1.012837955080103e-05
aF1.012837955080103e-05
aF0.00012413837867919858
aF0.00012413837867919858
aF0.00016401287110426416
aF0.00016401287110426416
aF4.216205822029791e-05
aF8.175984146152092e-05
aF8.175984146152092e-05
aF6.259156212671457e-05
aF6.259156212671457e-05
aF1.2447338544760191e-05
aF1.2447338544760191e-05
aF8.038113067310991e-05
aF8.038113067310991e-05
aF6.705590703113748e-05
aF8.126242071453838e-05
aF8.126242071453838e-05
aF2.2445795425054074e-06
aF2.2445795425054074e-06
aF6.848279154108185e-05
aF6.848279154108185e-05
aF9.613825246441795e-05
aF9.613825246441795e-05
aF0.0001206849011971383
aF0.0001206849011971383
aF4.5806952953387704e-05
aF4.5806952953387704e-05
aF3.7040335997759356e-06
aF3.7040335997759356e-06
aF0.00010995862190805176
aF0.0001013374923384581
aF0.0001013374923384581
aF7.374715352928676e-05
aF7.374715352928676e-05
aF7.438506386552016e-05
aF7.438506386552016e-05
aF6.409669354303426e-07
aF6.409669354303426e-07
aF7.642305143759226e-05
aF7.642305143759226e-05
aF0.00013532949642787922
aF0.00013532949642787922
aF3.276462313191657e-05
aF3.276462313191657e-05
aF0.00015544861672057376
aF0.00015544861672057376
aF4.445882673170317e-05
aF4.445882673170317e-05
aF7.736050361497091e-05
aF7.736050361497091e-05
aF1.0675594068245663e-05
aF4.78738260139976e-05
aF4.78738260139976e-05
aF7.457610665188157e-06
aF7.457610665188157e-06
aF0.00011815392252713302
aF0.00011815392252713302
aF0.00012108513063438738
aF0.00012108513063438738
aF0.00014551105397398684
aF0.00014551105397398684
aF8.986880651325969e-05
aF8.986880651325969e-05
aF0.00014850879385367328
aF0.00014850879385367328
aF4.889725531697412e-05
aF4.889725531697412e-05
aF4.3696366913019366e-05
aF4.3696366913019366e-05
aF6.374211505646892e-05
aF6.374211505646892e-05
aF0.00016417442277852598
aF0.00016417442277852598
aF2.745071262088604e-05
aF3.777833050331922e-05
aF3.777833050331922e-05
aF3.8007042638360565e-05
aF3.8007042638360565e-05
aF5.4847765789998124e-05
aF5.4847765789998124e-05
aF5.162370657510616e-05
aF5.162370657510616e-05
aF3.10624334216705e-05
aF3.10624334216705e-05
aF5.30749138863061e-05
aF5.30749138863061e-05
aF0.00014348225021013287
aF0.00014348225021013287
aF2.9213153948089563e-05
aF2.9213153948089563e-05
aF7.638406598661936e-05
aF7.638406598661936e-05
aF5.515362954024047e-05
aF6.380378957886044e-05
aF6.380378957886044e-05
aF8.387743471036953e-05
aF8.387743471036953e-05
aF8.022809077233547e-05
aF8.022809077233547e-05
aF9.423849270263269e-06
aF9.423849270263269e-06
aF8.405277354810456e-05
aF8.405277354810456e-05
aF1.9679055600296688e-05
aF1.9679055600296688e-05
aF0.00016051021871548918
aF4.9053193639408354e-05
aF4.9053193639408354e-05
aF1.1418031387948843e-05
aF1.1418031387948843e-05
aF7.246215705747168e-06
aF7.246215705747168e-06
aF3.864702927703665e-05
aF3.864702927703665e-05
aF2.1897118373354857e-05
aF2.1897118373354857e-05
aF0.0001718143264319448
aF0.0001718143264319448
aF9.079326103222243e-05
aF9.079326103222243e-05
aF2.6552200854856458e-05
aF2.6552200854856458e-05
aF1.7123672566320177e-05
aF1.7123672566320177e-05
aF9.649880731023895e-05
aF9.649880731023895e-05
aF4.4756780403440644e-05
aF4.4756780403440644e-05
aF1.4052164853812816e-05
aF4.2931528664439285e-05
aF6.279987175745337e-05
aF6.279987175745337e-05
aF1.188663347697815e-05
aF1.188663347697815e-05
aF4.11257004844179e-06
aF4.11257004844179e-06
aF9.921382179938263e-05
aF9.921382179938263e-05
aF8.235916850735503e-05
aF8.235916850735503e-05
aF4.321243703358675e-06
aF4.321243703358675e-06
aF4.294177250449049e-05
aF4.294177250449049e-05
aF2.4568665343438495e-05
aF2.4568665343438495e-05
aF7.851468787020405e-05
aF7.851468787020405e-05
aF5.017375918598959e-06
aF5.017375918598959e-06
aF0.00019462155367287767
aF0.00019462155367287767
aF8.946459516460584e-05
aF8.946459516460584e-05
aF7.002846264915816e-05
aF7.002846264915816e-05
aF1.188831443340886e-05
aF1.188831443340886e-05
aF5.9486103587791725e-05
aF5.9486103587791725e-05
aF3.968493744003147e-05
aF3.968493744003147e-05
aF5.823745667562183e-07
aF5.823745667562183e-07
aF1.7111539683945522e-05
aF1.7111539683945522e-05
aF4.5298675964110125e-05
aF4.5298675964110125e-05
aF5.9700255724840535e-05
aF5.9700255724840535e-05
aF8.710015401357374e-06
aF8.710015401357374e-06
aF9.896574819587148e-05
aF9.896574819587148e-05
aF8.09448953296958e-06
aF8.09448953296958e-06
aF7.829858717020352e-05
aF7.829858717020352e-05
aF0.00010271377585503835
aF0.00010271377585503835
aF4.004193133552875e-05
aF4.004193133552875e-05
aF0.00011988057520612799
aF0.00011988057520612799
aF1.4121369979177345e-05
aF1.4121369979177345e-05
aF7.097212501963559e-05
aF7.097212501963559e-05
aF7.27064650970864e-06
aF7.27064650970864e-06
aF7.486943693987394e-05
aF7.486943693987394e-05
aF7.333185780444262e-05
aF7.333185780444262e-05
aF0.00010794376441385542
aF0.00010794376441385542
aF3.1271360176760086e-05
aF3.1271360176760086e-05
aF5.6387398870461414e-05
aF5.6387398870461414e-05
aF4.503668150633502e-05
aF4.503668150633502e-05
aF6.235606415048513e-05
aF6.235606415048513e-05
aF9.754732148355697e-05
aF7.726677637913656e-05
aF7.726677637913656e-05
aF5.048327461980909e-05
aF5.048327461980909e-05
aF0.00015689611316480263
aF0.00015689611316480263
aF0.00013467654470403749
aF0.00013467654470403749
aF5.514310818393666e-05
aF5.514310818393666e-05
aF3.88105446610388e-05
aF3.88105446610388e-05
aF8.806520633416665e-05
aF8.806520633416665e-05
aF7.950046257074451e-06
aF7.950046257074451e-06
aF0.00013373778891806362
aF0.00013373778891806362
aF2.5469023908935693e-05
aF2.5469023908935693e-05
aF1.934450508464351e-05
aF1.7784793724620315e-05
aF5.0999383464950505e-05
aF5.0999383464950505e-05
aF3.0866731127426646e-05
aF3.0866731127426646e-05
aF1.2950921321864962e-05
aF1.2950921321864962e-05
aF2.563362266305043e-05
aF2.563362266305043e-05
aF0.00013668101692944983
aF4.920026577809169e-05
aF4.620806179898264e-05
aF4.620806179898264e-05
aF1.687367201801189e-06
aF1.687367201801189e-06
aF7.712610541867495e-05
aF7.712610541867495e-05
aF1.6795538040205648e-05
aF1.6795538040205648e-05
aF3.825613356976125e-05
aF3.825613356976125e-05
aF1.9348618282067537e-05
aF1.9348618282067537e-05
aF3.898584647049562e-05
aF9.058340066423608e-05
aF9.043042410376436e-06
aF9.043042410376436e-06
aF1.698795253147085e-05
aF1.698795253147085e-05
aF7.952535154825617e-07
aF7.952535154825617e-07
aF7.077828518868587e-06
aF7.077828518868587e-06
aF5.800725874101051e-05
aF5.800725874101051e-05
aF2.7123337786408735e-05
aF2.7123337786408735e-05
aF1.0189704519187794e-05
aF1.0189704519187794e-05
aF6.0073932927464026e-05
aF6.0073932927464026e-05
aF2.468576855427684e-06
aF2.468576855427684e-06
aF3.180106371915397e-05
aF3.180106371915397e-05
aF3.6354664748368447e-06
aF3.6354664748368447e-06
aF5.919307075599335e-05
aF6.429247004680882e-05
aF6.429247004680882e-05
aF1.754875981103494e-05
aF1.754875981103494e-05
aF2.173946311366634e-06
aF2.173946311366634e-06
aF3.144659725191302e-05
aF3.144659725191302e-05
aF3.26726132946148e-05
aF3.26726132946148e-05
aF2.3613530093122788e-05
aF2.3613530093122788e-05
aF5.083375478029099e-05
aF5.083375478029099e-05
aF1.7780848269100703e-05
aF1.7780848269100703e-05
aF8.437319497418384e-06
aF8.437319497418384e-06
aF3.8794835442931064e-05
aF3.8794835442931064e-05
aF2.3077294520307854e-05
aF2.3077294520307854e-05
aF2.513225126792951e-05
aF2.513225126792951e-05
aF1.8358469484697154e-05
aF1.0079904259602236e-05
aF1.0079904259602236e-05
aF5.5790243822602116e-05
aF5.5790243822602116e-05
aF5.9906031727505245e-06
aF5.9906031727505245e-06
aF3.367544307827391e-05
aF3.367544307827391e-05
aF2.0128612627688055e-05
aF2.0128612627688055e-05
aF1.053309554372882e-05
aF1.053309554372882e-05
aF1.0913386852301842e-05
aF1.0913386852301842e-05
aF1.5977032449278273e-05
aF4.0596469764787016e-05
aF4.0596469764787016e-05
aF1.143391059908784e-05
aF1.143391059908784e-05
aF2.3800309819134224e-05
aF4.761568433253607e-05
aF4.761568433253607e-05
aF1.225945153105044e-05
aF1.225945153105044e-05
aF1.3296410741463171e-05
aF1.3296410741463171e-05
aF1.9730177358464558e-06
aF1.9730177358464558e-06
aF1.5524870861757944e-06
aF1.5524870861757944e-06
aF1.6428131520724175e-05
aF1.6428131520724175e-05
aF7.994136957306642e-05
aF7.994136957306642e-05
aF2.7638231309793312e-05
aF2.7638231309793312e-05
aF2.8864363173023483e-06
aF2.8864363173023483e-06
aF4.14687652645479e-05
aF4.14687652645479e-05
aF2.3875957376178413e-05
aF2.3875957376178413e-05
aF7.135477380514057e-06
aF7.135477380514057e-06
aF3.523798748290638e-05
aF4.501830773618514e-05
aF4.501830773618514e-05
aF3.334977130397171e-05
aF2.2154718083169456e-05
aF2.2154718083169456e-05
aF7.277150853324247e-06
aF7.277150853324247e-06
aF2.263523734714562e-06
aF2.263523734714562e-06
aF1.9045065805916354e-05
aF1.9045065805916354e-05
aF2.323756918363205e-05
aF2.323756918363205e-05
aF7.739670657687117e-07
aF7.739670657687117e-07
aF7.5166566456364755e-06
aF7.5166566456364755e-06
aF1.3201561756970757e-05
aF1.3201561756970757e-05
aF4.729167782929162e-06
aF3.0135646555863057e-06
aF4.8954618412185725e-06
aF1.4314733867216244e-05
aF1.5347718063580415e-05
aF1.9204574613529807e-05
aF4.7495601949452366e-05
aF8.334328531074156e-06
aF8.334328531074156e-06
aF1.2098548754646185e-05
aF1.2098548754646185e-05
aF1.1938918088208245e-06
aF1.1938918088208245e-06
aF8.621790111309411e-06
aF8.621790111309411e-06
aF5.410600004686009e-05
aF1.6453710867988494e-05
aF1.6453710867988494e-05
aF3.010328919187303e-05
aF3.010328919187303e-05
aF1.7663851862251585e-06
aF2.6446088835482008e-06
aF2.6446088835482008e-06
aF1.9191882679543924e-05
aF1.9191882679543924e-05
aF2.2431243715907413e-05
aF2.2431243715907413e-05
aF9.658942981097067e-06
aF9.658942981097067e-06
aF9.84143268209566e-06
aF9.84143268209566e-06
aF2.8384230773463684e-05
aF4.541651193546125e-06
aF4.541651193546125e-06
aF9.845791353750044e-06
aF9.845791353750044e-06
aF1.7702557858040647e-05
aF3.457475854581549e-05
aF3.457475854581549e-05
aF1.3154506085084587e-05
aF1.3154506085084587e-05
aF2.7475686101314932e-05
aF2.7475686101314932e-05
aF1.0785789639528723e-05
aF1.0785789639528723e-05
aF5.350445752282614e-05
aF3.8394188875391385e-07
aF3.8394188875391385e-07
aF3.24156339201153e-05
aF3.24156339201153e-05
aF2.2212326860142837e-05
aF2.2212326860142837e-05
aF4.166188562457775e-05
aF4.166188562457775e-05
aF2.8390209277279013e-05
aF1.4780554202827455e-05
aF1.4780554202827455e-05
aF5.9936588185113316e-05
aF5.9936588185113316e-05
aF2.0105300815068647e-05
aF2.0105300815068647e-05
aF2.9948732304630972e-05
aF4.809073369534438e-06
aF4.809073369534438e-06
aF2.416754403452928e-05
aF2.416754403452928e-05
aF3.1745389609937366e-05
aF3.1745389609937366e-05
aF1.560715217761454e-05
aF1.560715217761454e-05
aF4.7170443457528684e-05
aF4.7170443457528684e-05
aF2.1978782102602044e-05
aF2.1978782102602044e-05
aF8.752121330954821e-05
aF8.752121330954821e-05
aF2.7722288554128406e-05
aF2.7722288554128406e-05
aF6.1631814581206565e-06
aF6.1631814581206565e-06
aF2.5567103815044558e-05
aF6.497237398927669e-06
aF6.497237398927669e-06
aF2.7292323451247142e-05
aF2.7292323451247142e-05
aF2.628998519189678e-05
aF3.52158923479795e-05
aF2.104771147994134e-05
aF2.104771147994134e-05
aF7.83390982871131e-06
aF2.6718307310573943e-07
aF2.8804083253295416e-05
aF2.8804083253295416e-05
aF3.638560435485465e-06
aF3.638560435485465e-06
a.