(lp0
F0.0021440821356307747
aF2.5974176549556417e-05
aF2.4853206815084135e-16
aF0.002874274493546954
aF8.829461583963257e-17
aF8.358209527085581e-05
aF1.8674429865326188e-16
aF0.0047076941342129594
aF1.307771105927113e-05
aF1.585801206252936e-05
aF4.842206610307577e-16
aF0.0010604847488005684
aF6.869542930985271e-16
aF4.749854074830989e-16
aF0.00023872045208359698
aF0.0014778988226802714
aF7.18112976650071e-05
aF2.623947597267479e-05
aF0.009665784258983586
aF5.384684464541697e-05
aF1.6314664319205205e-06
aF4.444137524815414e-07
aF1.2968872242327682e-15
aF0.0023284732186267375
aF0.00218522185419634
aF2.7139333100337554e-05
aF6.110605678355382e-16
aF6.585701569104824e-17
aF1.0588670403994653e-15
aF0.006310954673111834
aF0.0020323386399977916
aF7.340605693188242e-16
aF0.0011241099052753342
aF4.750122407701984e-06
aF7.026016311124048e-06
aF8.120469558910698e-07
aF1.7377753956261653e-15
aF7.407020767089344e-05
aF0.004754409305234113
aF7.496171155437364e-16
aF1.1555066518804731e-15
aF4.681851159656668e-16
aF0.004780794831424783
aF1.2858164877875466e-15
aF8.169738184209006e-16
aF0.014137729503158959
aF0.0005241510356835705
aF0.0045607254797787366
aF0.012957580632767174
aF0.003244976254814487
aF0.000996015757084383
aF0.0026605525845010956
aF4.112513543389526e-05
aF5.683935282449664e-05
aF0.00012947166267847273
aF2.8995180929024146e-05
aF9.77190871610654e-16
aF0.0024681729861491426
aF0.018952499361998342
aF0.008188822279262339
aF0.001335220623394427
aF0.004462342433137008
aF0.001856101356769871
aF1.2467120772786182e-16
aF5.921231708498157e-16
aF0.0003668324357906304
aF6.346513482306008e-05
aF0.004798023328482935
aF0.006992664260206042
aF0.0010761809679299954
aF0.004747172972202792
aF3.116373283540058e-05
aF5.356456507542486e-05
aF4.1979786426925506e-05
aF2.1251392933308482e-15
aF9.506150731609778e-16
aF1.6684073260803025e-05
aF5.316459750221913e-15
aF0.005841692157070541
aF0.0015740839039357966
aF0.005067624811192892
aF1.600119621019344e-05
aF0.006192085768807197
aF5.445193529470947e-05
aF0.006662548481357923
aF0.0004926394853981727
aF0.004590360654789951
aF0.010977621901082668
aF9.181509587003226e-05
aF5.558395262159446e-16
aF1.4926106973008545e-15
aF0.0021102955229081763
aF8.378145489392805e-16
aF0.010439107917408721
aF0.00985124713730612
aF0.00741219821224887
aF0.002189737962164161
aF4.038837274178778e-15
aF0.009745024894732
aF0.010013842395358111
aF0.00011089562660914397
aF0.004050274471093804
aF0.010423219327222082
aF0.014408998128175844
aF0.0006865457672014418
aF0.009162030926250217
aF0.001287941573263885
aF8.705603574849844e-16
aF3.2062926907573666e-15
aF2.1376747399049033e-06
aF5.784972069289145e-17
aF8.923288550048586e-07
aF8.413719334619632e-16
aF7.012439143641936e-17
aF5.44493199049932e-05
aF6.71323388489248e-15
aF0.004075383738613404
aF0.000522196029574611
aF0.0001317561135936441
aF0.017543251792288068
aF0.013400911034494704
aF0.00044549397079339536
aF0.0009117371597231065
aF0.00035326778788236736
aF0.011994096151486023
aF0.002828981452957223
aF0.001015126875688298
aF0.0009958942756142376
aF4.051447491134026e-06
aF1.3980604716492593e-16
aF1.7075835842876557e-16
aF0.0034782442421621347
aF0.020560307750979837
aF0.0015803401452545063
aF5.738372306193693e-16
aF0.0010437735478353394
aF0.021433458103018884
aF0.005644490294804891
aF0.013595769195386489
aF0.0009441062334707685
aF5.262207426470623e-15
aF2.043240219536749e-06
aF3.6959509631231136e-16
aF1.611631762158165e-05
aF5.429809731698023e-06
aF0.001235937864804719
aF0.0020770444159607633
aF0.0313498030638825
aF0.0007741198613094831
aF1.694220080053369e-05
aF1.935589596313094e-15
aF4.3423029205692345e-17
aF2.0817011109995145e-16
aF0.0002746484222273099
aF0.00834594585132195
aF0.00836753171870234
aF0.030072683364021052
aF0.0030986791120782334
aF3.973434670694138e-16
aF1.4132923710443951e-16
aF1.1482154230520183e-05
aF1.135398882317531e-15
aF0.0010724302924029101
aF0.004293275934066036
aF0.02140083582935599
aF0.01007891142313348
aF0.00023495867695983867
aF0.002208621817666966
aF0.007762044026797875
aF2.1315925656011458e-05
aF0.00032689769378033666
aF0.0021186475863243827
aF0.031302087858738205
aF0.012238831002113593
aF0.010161360853285993
aF0.0014546099782836394
aF0.0001766272058110476
aF3.7780881539243344e-05
aF2.4128542485107366e-05
aF0.004120208193244268
aF1.711769903278504e-16
aF5.625414647900215e-15
aF1.0296262190425774e-05
aF0.0028278930595308296
aF0.0006599117025832529
aF0.002150786958602586
aF0.001720374844852323
aF0.00097815718817152
aF0.0008622366500866017
aF0.0020003128899062964
aF0.018158358859823504
aF0.0017002019035198038
aF0.0022052602385605317
aF0.0021185435460910717
aF0.004662801177926317
aF0.02791467927451509
aF0.001106396094419879
aF0.001024606409485839
aF1.4897508524438396e-05
aF1.3400956361041028e-15
aF1.3520597239326513e-15
aF0.00033819898083308316
aF1.243414909921358e-14
aF0.017418628604893613
aF0.04082960825280511
aF0.0007816522483581751
aF0.020693906741149563
aF0.004153970684130771
aF0.002876482618111405
aF1.4669624103737565e-05
aF6.516790874348887e-05
aF2.724701064283027e-15
aF2.0435778629944477e-15
aF0.0026969217313299815
aF0.0003295251546345143
aF0.0023547016758867123
aF0.002618627390338849
aF9.769934326841781e-05
aF8.138420137716225e-15
aF0.00030144609975803584
aF2.4438973724223136e-15
aF0.0022496962785249026
aF0.018130721371429237
aF0.0007280406514263378
aF7.363657735663666e-06
aF0.0015326380856697521
aF0.0003872650325080392
aF0.030268092896732872
aF0.009046615211263187
aF0.007088946776081258
aF1.515887856885619e-07
aF4.937104233387387e-16
aF0.004679488954357401
aF9.081844482483815e-05
aF0.0020083412564513565
aF0.00849247763328143
aF0.023649229223257035
aF0.0034908352852020107
aF0.0058061979902112384
aF0.001875805765127089
aF0.00017595385345843255
aF0.0010893159367794515
aF0.002397526188448804
aF0.004488857213009519
aF0.002132414364926015
aF6.90777418907923e-05
aF0.0018235909625734148
aF0.00034500454352916904
aF0.00013428419277670574
aF0.003544983284852636
aF0.0010447332823799486
aF0.0008285484877058931
aF0.005921592548405791
aF0.002135894952690559
aF0.0005983026862792144
aF0.005105895567368226
aF0.001826852767573153
aF0.018574407855152915
aF0.004834646802565365
aF0.004672366651939119
aF0.0001248893576635892
aF2.9096327177928465e-16
aF0.00012400466488762235
aF0.0016106630269219979
aF0.0029375149158756076
aF0.0016245906932765657
aF0.00016349376858800047
aF0.00021784847051310486
aF6.895063307372445e-07
aF2.310904303080032e-15
aF1.928760732966452e-14
aF0.0010992981832116384
aF5.905832719195408e-16
aF0.00014110302541770988
aF0.00021660538591505456
aF2.4342061801917497e-15
aF7.865235795997913e-05
aF3.4995159063136547e-16
aF2.0596115034987855e-15
aF1.7952747603323783e-15
aF0.0001188898305864968
aF9.41702429391136e-16
aF0.00020695056742440492
aF0.0009759834475246337
aF0.0002802614015464746
aF0.0029371847224524367
aF0.006756088340289671
aF0.004918992829383945
aF1.752910202929614e-05
aF2.2140814074683336e-15
aF8.985431835327705e-05
aF0.0032969679915673946
aF0.017531813252602425
aF0.004619050910333907
aF0.00707143123687808
aF0.003158135223657184
aF0.0043160901134337475
aF0.00035971493426337605
aF0.0014979772873983856
aF0.0002520488524394763
aF3.611064363884327e-15
aF0.003845094636655671
aF0.007712856012368655
aF0.002957424766738049
aF0.0022939674270587933
aF0.00047597249909073994
aF0.0002917187970312434
aF0.004518025387333393
aF0.0035043358615435873
aF1.4125688840944064e-15
aF0.00020002704170486452
aF2.3554637090079763e-05
aF0.006591270243497903
aF8.105948488658406e-05
aF0.01778320156124289
aF0.015736180406461485
aF0.003011066483775528
aF0.0013680779477353152
aF0.004095897693231164
aF0.0005018326507522755
aF0.0004293639745344585
aF0.0019610153865084255
aF0.00609451040038582
aF0.027167992467234052
aF0.0003600962829084388
aF0.0002921634773381481
aF0.0004981886897432651
aF0.007398651794388122
aF0.004118648092152068
aF0.0019140095005535757
aF0.012158146729619991
aF0.0033615771748686262
aF0.0029669828034861903
aF0.0005125434324126548
aF3.65837566895927e-15
aF0.0017014604490026574
aF0.0008243057651505111
aF0.0068607286475190505
aF0.0005755889198403792
aF0.0012528425418100102
aF0.0001140593903193726
aF2.578977874315342e-15
aF0.0004384738421965987
aF0.000717146880909243
aF0.0012123652932863381
aF0.000553415787789301
aF0.010045131347525384
aF0.000742009979792659
aF3.051581259823639e-06
aF0.007701116847592257
aF0.006871186770212937
aF5.989729045248928e-15
aF0.00456400506346422
aF0.0047099479309580345
aF9.89354015652903e-05
aF0.0011602237263133837
aF0.003499002160383017
aF0.0012676460901096642
aF4.1200647056997193e-16
aF1.0500192247017706e-05
aF0.012368758671575702
aF0.0002820825143675259
aF3.1183206933237515e-15
aF0.0003322144590437451
aF1.5170556655118244e-06
aF0.0025664033883428723
aF0.0003805102157058424
aF0.00038170072594750465
aF0.003913245525718713
aF0.00026814860046910126
aF0.000749949567360779
aF3.988746897522689e-15
aF9.54134571001536e-17
aF7.005794052374175e-15
aF4.7805053922639866e-05
aF0.0010084605858131028
aF0.0018099024057492844
aF0.0008713901711746868
aF2.904555651356376e-05
aF0.00021236777226212372
aF0.002682482358546537
aF0.008456361599245277
aF0.0007621413717022019
aF0.000676562422081499
aF0.0006900972321171456
aF0.0010555308528506595
aF1.1519194037162661e-05
aF2.493026747063548e-15
aF2.3191529446843774e-06
aF9.58196197201568e-15
aF0.0015553515455349067
aF0.0066340997118103
aF0.0020893674209434853
aF0.00029595718463508816
aF0.0009493040119442484
aF0.0011362670253628323
aF0.0016143986230526576
aF2.7376075404686378e-05
aF0.0017130248283854727
aF4.617544692126459e-05
aF0.0026544439564448997
aF0.0004376024243343893
aF0.005634971709595864
aF0.0012561813305718165
aF0.003081145021990377
aF6.269808738851211e-06
aF8.035387522494769e-16
aF0.007446727553782318
aF0.00894895140125307
aF0.006889039527315703
aF0.0033834203940131835
aF0.006514512050004128
aF0.004055282912046596
aF0.010300343991578646
aF0.0009034124223449298
aF2.227085662233738e-05
aF7.914537108152987e-05
aF0.0004853390297743356
aF0.00016048128416421389
aF2.445028448474294e-15
aF0.00013513698654267912
aF0.0005996481581094662
aF0.0005707459419884278
aF0.0039902531980848125
aF0.0006302544190571323
aF0.0001291784152571552
aF0.00010487115916545787
aF0.0001378770544904377
aF0.0015486316936498784
aF8.783611593245195e-16
aF1.2529396316780042e-15
aF0.00018960219813164914
aF6.296314713345841e-05
aF0.001739753542312681
aF0.0006438386099784304
aF0.003716071113548977
aF0.0021025734422880516
aF0.0030368857426467223
aF0.01956380482298804
aF0.0007997330189267633
aF0.0002482099234660373
aF0.006684023297278293
aF0.0007904569588902648
aF5.467359612145745e-16
aF2.92982416056857e-16
aF0.0005738584107856193
aF4.7584228869255386e-05
aF0.0007227040480453781
aF0.00020386507386481613
aF0.001861364163624952
aF0.0015746169927244524
aF0.0003283605580195132
aF0.007164203173821752
aF0.0016619692119940414
aF0.001611941466919408
aF6.59019750513936e-05
aF0.0016252505355725804
aF0.00022510905196884137
aF0.0010773799010443605
aF0.0018462466722678277
aF0.0004254820328828447
aF0.0009520960237427293
aF0.0013782876428608747
aF0.0011824855962285457
aF0.011569660070854951
aF0.0002718047067025573
aF0.0007552073780367498
aF0.00011708722553382386
aF0.0005327899585461398
aF0.013375522332725745
aF0.0002531912284540726
aF0.0004069867387862306
aF0.0016621710978320622
aF0.0011190999191012991
aF1.2709578667927819e-15
aF0.0009230182469228502
aF0.0015239655470087614
aF0.0003643721033489119
aF0.0014807858514458458
aF0.00016572997277910134
aF0.0009626418802587013
aF0.0006356248261491248
aF0.0003103373440927644
aF0.0001852213698559993
aF0.0009702948861388071
aF0.00044287620809799525
aF0.0012347061988504952
aF0.004728750101362817
aF0.002493477427246515
aF0.0003716942753671116
aF8.711628468567534e-16
aF1.0652312071819492e-06
aF0.00013498381712755337
aF0.005435338386430436
aF1.3567230862636003e-15
aF0.0015499020731471408
aF0.0006082877896319183
aF0.0037612350769793803
aF0.00038292447712069005
aF0.0015586945600735065
aF0.004130465153548558
aF0.0008356737877512015
aF0.000913309796411539
aF0.00044355130455130104
aF0.00595462593602423
aF0.0010283058018647272
aF0.0026842757826163405
aF0.00043733111079965515
aF0.001149180243724441
aF9.528354524317628e-05
aF0.00389768634432479
aF0.0032329857693105795
aF0.002710959643822775
aF3.026261877337691e-05
aF0.006903114447622402
aF0.00018735340126827194
aF5.854357630603105e-16
aF6.171071270872257e-16
aF0.0018149866812079284
aF0.0027389754609914527
aF0.004375123913902672
aF0.001987837391616712
aF0.016922447278236444
aF0.0009506469093406003
aF0.0014397005517315482
aF0.00017316056009949793
aF0.0001344377718080054
aF0.0008113162909287538
aF0.0003479135001759503
aF0.002578849565439363
aF0.001694880501453865
aF0.0016153978344629694
aF0.0003641524901514351
aF0.003985111775879705
aF0.003148243857984312
aF0.0003331446970603517
aF0.001504402075340666
aF0.0025727458798544996
aF0.0012399984647200313
aF0.0002629346907449919
aF0.00011527024704683596
aF0.000560578028041166
aF3.810572406021534e-05
aF0.011331700805757797
aF0.0012356276329060915
aF0.001099756147808034
aF0.0031402646970033524
aF0.0026883675470352683
aF0.003043032024507395
aF0.0025688300945707738
aF0.0013826014899747138
aF0.002546954929797513
aF0.002467938062107677
aF0.000248077047063441
aF0.0005776759097784145
aF0.0020316387496377335
aF0.007722525245889787
aF0.0021238088433537905
aF0.0010043891494512726
aF0.01129540760302273
aF0.00027702082218093634
aF0.0004799176820067903
aF0.0013990508821184718
aF0.00042824677595754997
aF0.0007700688943702281
aF0.0029202291442723114
aF0.009801779929470778
aF0.002535084778513052
aF3.294047011179282e-18
aF0.005149419189794267
aF0.00130074020771871
aF0.001192201628490254
aF0.00034305231149482515
aF0.00015127112682755648
aF0.0009192443995519353
aF0.00010803188460960829
aF6.420218142778743e-05
aF0.00014250354011424515
aF2.4788910937719652e-17
aF6.580047449428309e-16
aF0.005468622445640439
aF6.902952375037161e-05
aF0.0009268960511345165
aF0.00010669880045905923
aF4.6999164631556936e-15
aF0.0033930777960013356
aF4.092542794272912e-16
aF1.164954342886944e-15
aF3.1999662835188356e-15
aF3.118697298844517e-15
aF1.0290127859919299e-05
aF7.38899337058154e-05
aF7.98269531193657e-16
aF1.529760422491252e-05
aF3.683521870295761e-15
aF6.950109455565892e-17
aF0.00022190121861890338
aF2.7549692347989714e-15
aF8.094602951326693e-05
aF2.2200891374875507e-05
aF5.513039280871464e-16
aF3.4686998973425737e-16
aF6.19096713616848e-05
aF4.552828878149216e-16
aF6.975156177541066e-16
aF4.073427441847035e-15
aF2.683044264097668e-15
aF2.102485776314627e-06
aF5.52693382918832e-06
aF3.87412302317354e-06
aF3.187203859545296e-16
aF1.1402554086439293e-05
aF1.2565617750073908e-15
aF4.914269527777651e-16
aF1.7658972376276042e-15
aF1.8714530475335633e-17
aF8.941535639228653e-05
aF0.0029205644594475478
aF0.0007957716232202162
aF0.0020649023809609845
aF5.539409123330557e-16
aF0.0015099258251224871
aF0.000681398007170371
aF0.003707960151511847
aF0.0002576397997610382
aF0.0006688165744182908
aF0.0010495273612706356
aF0.00012015544486115292
aF0.00454863030778593
aF0.0005733323680138995
aF0.008182186347702214
aF0.00025791722422075614
aF2.81651760799466e-15
aF0.003823336902660508
aF0.003350713438125805
aF0.0005087109651378271
aF1.548866840572814e-05
aF0.004171337662718993
aF0.0073310260599525855
aF0.00033727855273068744
aF0.0054748504560464435
aF0.00026122912712255627
aF1.3782675540241286e-15
aF0.003549453866660674
aF0.0004088870734918009
aF0.0027048360715567687
aF0.00015506645631510336
aF4.1561300079248685e-05
aF2.6236139082447846e-15
aF0.002340263451779944
aF8.237881569648763e-05
aF0.0016782506612228443
aF0.011967734249874762
aF0.0009889124837757772
aF0.002525961804533195
aF8.921256266886107e-05
aF0.0009157689461615134
aF0.003501297713466113
aF7.22405380134802e-05
aF0.00683230568451525
aF0.00248397449719723
aF0.0026997627901997685
aF0.006101237308887297
aF0.00018577782698447063
aF0.0007058460246902996
aF0.006553973084853638
aF0.0006027170065503219
aF0.0001823242473258026
aF8.520765392333966e-16
aF4.490791773427451e-16
aF8.790741727802045e-16
aF4.808733383460118e-16
aF0.006542499303919315
aF0.0005781636860781726
aF0.0006017996557927218
aF0.0021868763404148638
aF0.004881046072372414
aF0.00020518294267522785
aF0.00038438514197270844
aF0.0006088722073070017
aF0.004813198007885307
aF0.0013990386681348667
aF0.00036426706855995615
aF0.00010004983265263557
aF5.065446058114933e-05
aF0.000843137640082747
aF0.0002399510039108654
aF3.047230521421554e-05
aF0.005248224060302524
aF0.0009197258614504667
aF6.694202886839515e-16
aF0.002667303346603433
aF0.011240900926949168
aF0.006389820814683234
aF0.002147715918080357
aF0.00021475993163939022
aF0.0003777826668560854
aF0.004239634173637887
aF0.0025956066929142055
aF0.0012040213031517207
aF0.00042983765506001694
aF0.0037694781090867524
aF0.0062011316964709386
aF0.0006369452122992403
aF0.0021515868999860853
aF0.0011913065334600778
aF0.0007282629883165729
aF0.00024106943770201627
aF1.002627907954024e-15
aF0.0008250941018167053
aF0.006821906739850486
aF9.558821760308035e-05
aF0.0013372327177711002
aF0.0006969417573251858
aF0.0006075716368133236
aF0.002338821637183087
aF0.00023529817939527522
aF0.002046314062604262
aF0.002063936141521205
aF0.0042879553852321955
aF0.0006854389741295191
aF0.0013593294239861715
aF0.009325093723349063
aF0.0022639223339840746
aF0.0010871917444059869
aF0.00031685787808105224
aF0.0015411318450497791
aF0.0005828522618520611
aF0.00011153291289488016
aF0.004734108536642036
aF0.0017789394840032572
aF0.0035339442585286666
aF0.0051386397871757755
aF0.00043687530446944936
aF0.00889831314074057
aF0.005573552002713835
aF0.01095344582495218
aF0.002802201024003015
aF0.001185261196484566
aF0.0005400772521993928
aF0.011024620309249729
aF0.0023297610233128227
aF0.0017863869867821092
aF0.011401234782354571
aF0.0005534758396045992
aF0.0004378504041593058
aF0.0005285879617712339
aF0.0034757152066737743
aF0.0005544436246207189
aF0.00041448227477016515
aF0.002475704715832392
aF0.0006401954046325806
aF0.002077347408871019
aF0.014871466461364467
aF0.0065965601996466686
aF0.0051836133137296465
aF0.002229562352970075
aF0.0011583244719102343
aF0.00041901927603964423
aF0.002867116216079049
aF0.0021483121294844703
aF0.0018916207715196165
aF0.0005803224837195937
aF0.016441585330610305
aF0.00032268887406893167
aF0.00014416466589229555
aF0.004163356272677359
aF0.0016860308505099975
aF0.006931922755641933
aF0.00035475999472205186
aF0.004210408626049773
aF0.0032162401865612105
aF0.0008399704585153452
aF0.0067859142802342625
aF0.002068438416851061
aF0.002229472438101527
aF0.007217492340947517
aF0.015431907267957765
aF0.0002092206808413103
aF0.00016592065516029137
aF0.011418614206321382
aF0.0034581827092706133
aF0.001857772836844084
aF0.007512551395587882
aF0.0018508315056398367
aF0.0006064027327374355
aF0.0016131316861313482
aF0.002592725784113339
aF0.002937339111043443
aF0.01210797676034996
aF0.00010526718641616688
aF0.00025190332941838644
aF0.00025160484212814033
aF0.011632430173224823
aF0.007524003121493072
aF0.003815075369630948
aF4.092819594497207e-06
aF0.00015770820093459015
aF0.0009256239095943816
aF0.0011127674147909323
aF4.368081764692488e-05
aF0.0017871485216365002
aF0.00370902795213287
aF0.010550596991119711
aF0.0011633938680911113
aF0.012126433503421559
aF0.009523256208317326
aF0.0007849714147792172
aF9.816361799061975e-05
aF0.0009122533462034957
aF0.0002453303542529836
aF0.004457778865963664
aF8.558525237490334e-05
aF0.003591804849649451
aF0.004541761728385395
aF0.0005793608528152298
aF0.0009107129807596544
aF0.00016327249925973642
aF0.00017499883604889208
aF0.001262620429145525
aF0.001282390730585175
aF4.4069433863668483e-05
aF0.0010364379347427076
aF0.0003054470241319289
aF0.001524978701211261
aF0.0002798997745112452
aF2.680065319656339e-05
aF0.00011905843720668084
aF0.0005819205405937462
aF0.00037564018905323417
aF0.0014076001628144077
aF0.0010074634122399918
aF3.4556214899097465e-05
aF0.00028867260496818277
aF0.0014593922154600863
aF0.00277896011867085
aF0.0035237871373850226
aF1.888951083510304e-15
aF2.9449212868516063e-05
aF0.0007346657607124955
aF0.001385802775714413
aF0.002845845782167573
aF0.00012620150248527222
aF5.64753211779736e-05
aF9.746927121061229e-05
aF7.871338035014997e-16
aF8.720621758966705e-16
aF1.8314253927622926e-15
aF7.642504381577027e-05
aF7.154759650807882e-06
aF4.4402206930779176e-15
aF1.7284889441104112e-16
aF3.804600224968369e-05
aF1.3895476595496994e-15
aF6.170606745290969e-16
aF6.0456557497454294e-05
aF2.796208386843568e-15
aF1.3459537134933262e-15
aF5.4538792648541936e-15
aF2.1325586482386297e-15
aF6.574100337827991e-05
aF0.002454185016415504
aF0.0001359521097686945
aF0.006878729374226165
aF0.008218864954101113
aF0.003068311331951742
aF5.6860284090393226e-05
aF0.002944369726193677
aF0.0014724067222491378
aF0.0005223194244716798
aF0.009799171603022674
aF0.003093235563639624
aF0.0019616412454439344
aF0.0013377742783255452
aF0.00020160632583577758
aF2.4419865745376702e-15
aF0.00022816647085546283
aF0.00015981257578930028
aF0.0013887537482481004
aF0.005550891665972523
aF0.00014459454627170425
aF0.0008488876013838362
aF0.00014381716147813996
aF0.0011869403125118912
aF1.137929364781674e-15
aF4.14311908675052e-15
aF3.65932316877231e-15
aF0.0005653543667790067
aF0.0008714432919766791
aF5.0474137753791716e-05
aF0.0024576046344142143
aF0.004723854241116099
aF0.005920931273230332
aF3.1879363565423167e-15
aF0.0010606691640717154
aF0.0006094408439196621
aF0.0037966451818256136
aF0.0026424785961045023
aF0.0008127032468125467
aF0.0002986947557906053
aF0.00012988947114391823
aF6.242207086869577e-05
aF2.1628148102125226e-05
aF0.01005073417659447
aF0.00321727207921471
aF0.00034304243129058473
aF0.01470077929422786
aF0.0023073614939943324
aF0.00047280575175888856
aF0.004372603465078075
aF0.001015051764297026
aF0.0157933218413806
aF0.013639416018466216
aF0.00035042574247001653
aF0.0015010609401688944
aF2.3514298029219632e-05
aF0.0005940554617573012
aF6.6187618436918374e-15
aF3.0739044990272824e-16
aF0.000682006983721654
aF0.0002435130975700334
aF0.00015429576141106334
aF0.0024636361578630446
aF0.0029478019345795872
aF0.002613326017898503
aF0.006520361857199758
aF0.0006162939414600882
aF0.0016776723565144406
aF0.0016100924256299352
aF0.0005337677347789899
aF0.00046368109995947935
aF0.0038756310165085823
aF0.00027679762879862446
aF0.002900483614917045
aF0.001859732628735328
aF1.907055782095541e-05
aF0.011708016635413541
aF0.0013372569196243602
aF0.0035914000374043446
aF0.0033401373199275454
aF0.0014920509582746465
aF0.002623063917801568
aF0.00016507166105106662
aF0.00044605525626045356
aF0.0015256375228621122
aF0.0025756444152424587
aF0.00106993812626387
aF0.000314191100037149
aF0.003072988499336545
aF0.006477218295987213
aF0.0027353039665128968
aF0.0009552324576345408
aF0.00034189171747243713
aF0.0007050083010410623
aF0.0013591515706095542
aF0.001837869181490621
aF0.004045051894305841
aF0.0005816716119212347
aF0.00014361251838354938
aF0.002244489774824348
aF0.00023942649821573112
aF0.00605353159024102
aF0.005749267426611701
aF0.00022874056702160896
aF0.0032849796565304996
aF0.0035313984998572617
aF0.0024607863117959497
aF0.00360363359778131
aF0.0016971548622324657
aF0.0014818018145474597
aF0.001560503721400403
aF0.00023779610947449216
aF0.0019750140997541617
aF0.0009609091239825009
aF0.0002520633673451046
aF0.001412407138325681
aF0.0018645825803742771
aF0.0005941543155201474
aF7.690164519946722e-05
aF0.0005329553265469973
aF0.003034927678873228
aF0.0005034457692995588
aF0.002697559020715103
aF0.003312063701393844
aF0.001742900822280582
aF0.002303473468651251
aF0.007900190320105886
aF0.0011197589250085897
aF0.00013639079116082765
aF0.009895463270123642
aF0.0006931733532227388
aF0.002805970038198579
aF0.0018474684152446532
aF2.605508313532425e-16
aF0.00013244552998577502
aF0.0017196347577662524
aF0.00484441401266469
aF0.0003412933236126655
aF0.00044850699974142776
aF0.0020382082813306516
aF0.004895182952544269
aF0.008938432866274576
aF0.0005907619342255829
aF0.00631061155729347
aF0.0055150553431149
aF0.0024289185452429757
aF0.001136261660686154
aF0.0003923357433594322
aF0.00020838067426003293
aF0.00046610140740621745
aF0.007487777077662011
aF0.0001425203241157951
aF0.0016214720602820002
aF0.00726439094309668
aF0.00048532358504397563
aF5.779124660744773e-05
aF0.0005120232509009652
aF0.0026956194911398664
aF0.001225423142500534
aF0.0007265627739950086
aF1.8516018762711562e-16
aF0.0020359137973093443
aF0.0016055188017211587
aF0.001501381805596435
aF0.006301006644580402
aF0.00015322682356126136
aF0.000695172708572938
aF6.690451203635113e-05
aF0.0001909461999101423
aF0.005740516893902758
aF0.0013135918402520236
aF0.0012204894378404158
aF0.0005139360760104026
aF5.5795614851419334e-15
aF0.0010900098419518059
aF0.0006660275567104688
aF7.930594001597671e-05
aF0.0002775532543345238
aF0.01050886518884443
aF0.0005153503191140467
aF0.000759288532470469
aF0.0011230659345534552
aF0.0003858022995438212
aF2.5143585229235825e-14
aF1.8835313912686392e-15
aF1.2052226232831345e-05
aF1.5812823543878557e-15
aF2.9558853119931397e-16
aF8.145449486634809e-16
aF3.3575300237147335e-05
aF7.638316702657041e-16
aF4.432389302171221e-06
aF1.8147881661685778e-05
aF2.484496443844035e-05
aF1.965424534597242e-15
aF0.006163703692274531
aF0.0026585837739458956
aF0.002461695769432698
aF0.0013526380861601287
aF0.0048469318565187835
aF1.1544486775839148e-15
aF0.00032454164864521303
aF0.001033251011213943
aF0.0021167248561425925
aF0.0005232048298637916
aF3.9227443693932934e-16
aF6.088180480178198e-15
aF0.002663294138315518
aF0.001979726379432169
aF0.0054688269301838505
aF3.21682031154198e-15
aF5.954653705222193e-15
aF0.0003880685411487193
aF1.0905788237094542e-15
aF3.195226159453286e-05
aF0.007813845410709147
aF0.0021459331058578212
aF0.00013372487302604175
aF0.00023262304417281766
aF0.00039887528203805516
aF0.0010617889179611838
aF0.0034229654868217036
aF0.0002879427833961861
aF0.0009821413844153038
aF0.0005715030327881848
aF0.0032612766744983157
aF0.001060094945684381
aF0.0014234556944252843
aF0.0010305731787996055
aF0.0001883288650608229
aF2.895218416988627e-05
aF0.0011996817599869668
aF0.0028092601099334166
aF0.002509211443953598
aF0.004505102733630412
aF0.0017250056006897052
aF0.004267996956282204
aF0.00036220583818030564
aF3.5253298843848937e-16
aF0.00040550871355028614
aF0.0007231108219956566
aF0.0003193352906169496
aF0.005006625313996597
aF0.0006528091663590504
aF0.002659240536453238
aF0.002663076645996158
aF0.0014511656735699467
aF0.0074955271142553
aF0.0010356831211952356
aF5.0014690010809394e-05
aF0.003382334391148285
aF0.0001126110460454552
aF0.0008278797677595751
aF0.00032534324844885076
aF0.0013426950748282645
aF0.0042636916930707085
aF0.001251297035879852
aF8.693395315859565e-05
aF0.0006931599162019387
aF4.042712705796837e-16
aF0.006092866882191355
aF0.0014612953612570185
aF0.0015574427988828796
aF5.246191049671196e-05
aF0.00012711209715696983
aF0.0040022234378072705
aF0.0030424186971179604
aF0.00010537758715941525
aF0.0006053430452475424
aF0.001161414500686612
aF0.0006428671688919415
aF0.0008466806845496082
aF0.0003761247831715158
aF0.0010262797601401563
aF0.0016533805587813648
aF0.004784365925548938
aF0.0033556463378499194
aF0.0003634610453493442
aF0.0016671461013393388
aF0.0029669564806853476
aF0.0012390048686194083
aF0.0009686251351815275
aF0.005012508959100841
aF0.004450015790022227
aF0.0017095076289094422
aF0.0015246377919142674
aF0.0005387133943585291
aF0.0005391556887432725
aF0.0048156402684660605
aF0.003050492319606023
aF0.0007946860078666183
aF0.002577527631746594
aF0.0004993322600795847
aF0.00016932495963507772
aF0.0078019525373903675
aF0.002664752935105887
aF0.0012968358744302598
aF0.0009269663772092172
aF0.0029685219605311993
aF0.0018302186918014096
aF0.0006296965888571302
aF0.0009363745925335688
aF0.0011845654429954327
aF0.00011406359323612934
aF0.005020149755857884
aF0.0001852950645399286
aF0.0005913120264127239
aF0.0029894597650106996
aF0.00011503045049341552
aF3.227435679858916e-16
aF0.000104497335270067
aF0.0004625674288192387
aF8.632308669060358e-05
aF0.0010712858556067178
aF0.007125771706577325
aF0.00012894055268271445
aF0.004982361574003023
aF0.0003135076141634567
aF0.008514950648603171
aF0.00012039953881985309
aF0.010176658731288648
aF0.0003042966229047868
aF0.0011109775931269293
aF0.0013599782134760706
aF0.007544232360659274
aF0.002194340238421012
aF0.0005415170762093378
aF0.0036880401608703436
aF0.001959845308828199
aF0.0011384622651680258
aF4.514735994167523e-05
aF0.0012241033975014695
aF0.00012136665793317198
aF0.006538182950756956
aF0.0005004930438181198
aF0.001490371074082623
aF0.001191850158292158
aF0.0007513710673010785
aF0.0003730359277051257
aF0.0003027801863766275
aF0.0008324545466835826
aF0.002554797590344658
aF0.0005007027674741262
aF9.091279138326931e-05
aF0.0003179720050084993
aF6.214672157350225e-05
aF8.773643803380259e-05
aF0.0010277998707402547
aF0.0006114302961022148
aF0.0006110693121798451
aF1.772354090001228e-15
aF4.292564265560365e-15
aF1.499878190857597e-05
aF1.5114810956031702e-15
aF0.0004877468717820968
aF3.3440314427391816e-05
aF1.1398695783506043e-05
aF2.05131130308032e-15
aF9.07556691573542e-16
aF4.982978350401719e-15
aF1.8452991761386067e-15
aF4.053559856735944e-16
aF1.0212987656881554e-15
aF3.6514520137570394e-15
aF4.671131037326934e-06
aF1.4121085414354422e-07
aF1.3164164156919007e-15
aF3.595854605720072e-15
aF8.46339404671502e-17
aF1.685725533142215e-15
aF1.2433651038814974e-15
aF3.1032566097221422e-06
aF3.789444191201634e-14
aF7.010420385355113e-15
aF0.001266431427367235
aF0.0004974305526595945
aF0.0018634535787041824
aF0.0003330970776003873
aF0.0010948180749732214
aF0.0007473236054414402
aF0.00024955392034245444
aF0.001351460717416086
aF0.0006752814107305117
aF3.9341500287223305e-05
aF0.0001929766753631794
aF0.0008213646568018486
aF0.00030478996742546496
aF0.0031480870148960943
aF0.004432410233131424
aF4.737175509416153e-15
aF3.679589227054905e-15
aF0.000926102817436622
aF1.7056664000782608e-05
aF0.004350502313316857
aF0.001872389498189401
aF0.0035639957087291994
aF0.002756474414276456
aF0.0016839349760779819
aF0.002608221129161295
aF0.0008176242872668216
aF1.2347501965813399e-15
aF0.0004686682566587889
aF0.0012633869014723794
aF0.002571398430334749
aF0.0013492914399299823
aF0.0005317711620984411
aF0.00021059284757404917
aF0.004695344600960551
aF0.0035796995939147724
aF0.0017223640281149148
aF0.0013425334234592771
aF0.00016793234914930024
aF0.004369182444725087
aF0.0035832421879880994
aF0.002847684075897975
aF0.000732166878271643
aF0.00021716035167602108
aF0.00035272125566158735
aF0.0024171651937900766
aF0.006545780565739261
aF0.003222087232834164
aF0.002489790167284973
aF0.0011349076245130152
aF0.0023337620489952814
aF0.0043590366435058816
aF0.00020847040326743864
aF0.0002840423372486878
aF0.00043376673555239745
aF0.00020458504829963257
aF0.0009436511052502872
aF0.004114153491155339
aF0.0011323721467711872
aF0.00011729410279061965
aF0.0006622491927245872
aF0.0018291302673378233
aF9.254310951744165e-05
aF0.00011922012797631336
aF0.001081875224638709
aF4.147177846524609e-05
aF0.0007214707490964063
aF0.0013149624722043846
aF0.001433420753225024
aF0.0013505592483817155
aF0.0004187376310121942
aF0.0012124176050121334
aF0.00044596909185117624
aF0.002510053736819959
aF0.0021995519812259877
aF0.001359929101646918
aF0.0012726293229174692
aF0.007567485440887176
aF0.0005089006776138166
aF0.001039738808009466
aF0.0013867408471459957
aF0.0004502807629079232
aF0.0027547751324141392
aF0.0040317773092467864
aF0.0002494693601215933
aF0.0004142301541817528
aF0.001304489948568754
aF0.000702379354458345
aF0.0006642402089001705
aF0.0002266539758338109
aF2.8297005240548213e-05
aF0.002899925685132468
aF0.0013296899589150422
aF0.00406141454491491
aF0.002413486206322517
aF0.0023186953794591854
aF0.0002300861969548338
aF0.00047039417624701466
aF0.001743155252589196
aF0.006771541525331972
aF0.003616768939029949
aF0.0013417057926761644
aF0.0017625332575579543
aF0.0034686424060544415
aF0.0016432788363561113
aF0.0014099298912660005
aF0.0002183376586876649
aF0.00011729960406314433
aF0.0002544832091018769
aF0.0001370034379313025
aF0.0008081045093103604
aF0.002102446046530645
aF0.0002731911308587964
aF3.937828366778976e-16
aF7.128754963320482e-05
aF0.0032171906702289136
aF0.0022683173222223523
aF0.0007752218085244134
aF0.0009787052206919507
aF0.0012958351197543782
aF4.905412284797876e-16
aF1.6764082272760261e-15
aF1.2615971110059347e-15
aF3.4350317628882264e-16
aF3.1995355178019968e-15
aF0.0001754793899722173
aF5.682636641183835e-16
aF1.330081700944259e-15
aF9.911152714870103e-06
aF1.2964595875059116e-14
aF3.051205603173422e-05
aF3.68637646589379e-16
aF5.97272697179138e-15
aF2.8205420476446525e-15
aF3.4373783846484435e-05
aF4.696371309221157e-16
aF4.410170848579174e-16
aF5.795274302722641e-17
aF4.305380652240411e-15
aF8.397312441617834e-16
aF7.5455595823511425e-16
aF2.7649649314182262e-14
aF1.1732825613036346e-15
aF1.7030927326176958e-15
aF8.295218456401657e-17
aF9.929755992607335e-15
aF8.05168374623988e-16
aF4.031604267321022e-17
aF0.00013287536297285185
aF6.339034670473857e-16
aF1.2368884386704948e-05
aF1.2999715101188407e-12
aF1.5118025310277297e-14
aF3.4716550835046575e-15
aF4.958733756163085e-16
aF2.8059716468785107e-15
aF5.1437457372016504e-05
aF3.389274626036525e-05
aF1.3665727501177349e-15
aF0.002071474543886393
aF0.002398662952029299
aF0.0008926327057812873
aF0.005895294412243703
aF0.00022915931399707353
aF6.313243775263242e-05
aF0.00045464947687332767
aF0.0003000281704576054
aF0.0004911186639007323
aF0.003982801941454992
aF0.0009518817384843245
aF0.0007915357986888555
aF0.0004154273438477003
aF0.0003224954484271679
aF0.0008131784249397775
aF0.001097342064670145
aF9.42494767893765e-05
aF0.00415194264492511
aF0.005655133521222078
aF0.0014882815747205987
aF2.9982504553975195e-05
aF0.006453423328987475
aF0.008544581191391879
aF0.0003975605896628755
aF0.000532785878039358
aF0.0020947348741849423
aF0.0002966868064647495
aF0.0001923177672865045
aF0.0027109159789941795
aF0.0005596493393393532
aF0.0019176945737685081
aF0.003298988323881305
aF0.005841820524350756
aF0.0012317583008810376
aF0.00030327154144574135
aF0.001510755789492335
aF0.004412122725648355
aF0.004029291841992837
aF0.00029600466787203816
aF0.0004011436510754547
aF0.002222268346290554
aF0.002148912464678204
aF0.0003160984160441171
aF0.000996791395279751
aF0.0005209149655470823
aF0.00041424089567151104
aF0.0022586531194430525
aF0.001980651064975236
aF0.00252002590826949
aF0.0008672095601778047
aF0.0023338369005358735
aF0.0023600227525433035
aF0.0011031651468663185
aF0.005988558187995959
aF0.0011284121798239557
aF0.0028722754547954917
aF0.0010941156207288393
aF0.0006018110339124855
aF0.00022649133700163786
aF0.0019083160961904742
aF0.002323414124795443
aF0.0005452288622650388
aF0.0017748058541795307
aF0.000283867233669659
aF0.0018325407241588452
aF0.0027095955269088707
aF0.0023352765271552347
aF0.003938129134938281
aF0.00016291050583034785
aF0.0009816655558397042
aF8.051260241929574e-05
aF0.0014643067601949763
aF0.00042559354187495543
aF0.0007570356280127277
aF0.0011193292440788533
aF0.0004802201843161605
aF0.0006547958627385471
aF0.0014342779799757894
aF0.0030828764054868373
aF0.001169632973792162
aF0.004304722077430429
aF0.003103422203899048
aF0.0007453338950297842
aF0.00039368008224066413
aF0.004629245461988793
aF0.0029430832501070787
aF0.0013938553493989514
aF0.0017170726649941733
aF0.001290623241048767
aF0.001323346070260915
aF0.0006007470389669483
aF0.0008899163958853931
aF0.0001404417922939544
aF0.002308032204858544
aF0.0009753455089071073
aF0.002845242918675039
aF3.183912696258948e-16
aF0.00028812481954756583
aF0.003587823042407782
aF0.000573957368649546
aF0.00014712524061132756
aF4.6659082941099554e-05
aF0.0033631950754017034
aF0.003406432765287726
aF6.854097778204003e-05
aF0.0003345488995691268
aF4.682206539286142e-15
aF1.7386723340642138e-15
aF5.773542892804422e-16
aF0.00024056263396416105
aF6.4540534590155355e-16
aF4.2017207895798624e-16
aF0.0004065425202887063
aF0.0006065952512594283
aF2.1071394498297834e-15
aF6.366212056281128e-16
aF1.900972066471015e-16
aF1.1804994174125592e-15
aF1.5096635998714692e-15
aF8.212115429567209e-16
aF9.423304634906273e-16
aF1.4041851706143084e-15
aF4.086321520265523e-16
aF1.580137068110361e-06
aF2.07176830202547e-16
aF2.1577060380921472e-14
aF4.0184130138964874e-16
aF1.1402422102099277e-15
aF2.1611812532144858e-16
aF4.305993502977391e-17
aF3.4679923479902124e-06
aF7.784797587199662e-16
aF3.736694641580289e-05
aF6.646041976730558e-16
aF4.823696647828107e-05
aF1.398132718819761e-05
aF1.2688192729210672e-05
aF1.9805612441390442e-16
aF1.6489690395443236e-15
aF7.320055477548866e-16
aF7.536283630903615e-15
aF0.0030152365164930555
aF0.0024933709508249157
aF0.0004464638416811838
aF0.00046175425200695126
aF5.357810635772602e-06
aF0.0003324798470478548
aF0.0007051373791957966
aF0.0011731081575796294
aF0.0028153468358631476
aF0.0006153023751589719
aF0.0002985157126581691
aF0.0006019734287889488
aF0.0006014400355257502
aF0.001137230890993473
aF0.000791511460326595
aF0.0003752753011188085
aF0.0011247368914934896
aF0.00077542559642273
aF0.0007527130637627337
aF0.0049491721292164595
aF0.0031328180851889907
aF0.00020376492917994522
aF3.757401844517105e-05
aF2.6784588396682024e-05
aF0.0013711389434060087
aF0.006359778107593581
aF0.001354741968242134
aF0.0015970006521041388
aF0.0016620253276448916
aF0.0002799375721874172
aF0.0008831320803431615
aF0.00020799332681289902
aF0.0023014980946598424
aF0.0006800060107103534
aF6.753785056400118e-05
aF0.002972543699988512
aF0.004145623281672089
aF0.00010388083176023686
aF0.0022737281513118403
aF0.0003596232032970241
aF0.005620800717752688
aF0.0037379366129043456
aF0.005407440401962958
aF0.0012281588690342617
aF0.0010507766955069966
aF0.0005852521163921675
aF0.001620900911486562
aF0.00421786978162286
aF0.0007572307110986373
aF0.00596922401507261
aF0.00018885599082217
aF0.0037036825468518978
aF0.00036346381118622666
aF0.0002280297036724473
aF0.004876220313753168
aF0.003946006904667531
aF1.1295563066664235e-15
aF0.0005749812475780738
aF0.0007464001014122076
aF0.005886321622784934
aF0.00046352427313022627
aF0.001059116366776031
aF0.0002622251877581583
aF0.001260649002808373
aF0.0016587818992448576
aF0.0002661367383053297
aF0.0001189870714858241
aF0.002709848588181416
aF3.484093407327257e-05
aF0.00400868182242598
aF0.0011786269343626074
aF0.00041812131706701016
aF0.000870379077600692
aF0.0021947731076013698
aF0.0011189111730796244
aF0.0001658211992797129
aF0.007677960875734948
aF0.0009360948382529571
aF0.0009632827078429751
aF0.00031802874926944595
aF0.001206430843678812
aF0.0012754234284353798
aF0.0018327433583600662
aF0.00045067912336610466
aF0.00013514733507397078
aF0.0005311659065400827
aF0.0006182343647338131
aF0.0001261258549976684
aF9.313649295681108e-05
aF2.5894768355625364e-05
aF0.0009919206764796846
aF0.0006425526619490056
aF3.755085521708885e-05
aF0.0010557807119287803
aF0.00045040129345017677
aF0.002409065279244797
aF0.004967917316652058
aF0.0002451832987370795
aF0.0011072049667602958
aF0.0009536689238589689
aF6.296085194134978e-05
aF0.005691880059355253
aF0.0008836768400506084
aF0.002680675375281887
aF0.0001411910898160975
aF0.0009913091876809841
aF0.0002578226407706488
aF0.001137481977601797
aF0.0003362323190003343
aF0.00028023461025110494
aF0.001425891300413741
aF0.00010558165268850303
aF5.558388789534908e-05
aF0.0023932396688521457
aF1.951485728914152e-15
aF1.3829212005398248e-15
aF5.411649745732196e-16
aF1.058658378639071e-15
aF2.1180907409697004e-16
aF1.6223509561454478e-14
aF5.247214778774471e-16
aF5.915129110637551e-16
aF3.22325747117424e-17
aF8.051941215013549e-05
aF1.7498524360076767e-15
aF1.1261254605400357e-05
aF1.262729315433853e-15
aF1.284878229915489e-16
aF2.64050066731068e-05
aF2.975147375746876e-16
aF8.423044333612665e-06
aF8.547463769694717e-05
aF4.5243826517614244e-05
aF4.290667477485371e-16
aF9.21054057079562e-16
aF0.0003530575076594144
aF7.227949888984075e-06
aF1.2267812167683895e-05
aF2.4310733508557317e-16
aF1.9864168905363672e-05
aF2.1853535551998461e-16
aF3.148646709683865e-17
aF4.766438126325769e-16
aF0.000533447784606646
aF0.0004811893671988845
aF0.0012482672784907118
aF0.0009241980676533041
aF0.0005523963016167594
aF0.0005980590067393869
aF0.0032734817660474455
aF0.0010590720933381652
aF0.000676220692771496
aF0.00015019831508398818
aF0.0012903024991798696
aF2.904012908000898e-15
aF2.1693668060570144e-16
aF4.87637305418853e-16
aF4.011771840903678e-05
aF0.0003816061622207979
aF2.075043241583601e-15
aF0.0003890421073516545
aF0.00036519399390534554
aF0.0001656733912367438
aF1.6673314203234146e-16
aF1.752863182353865e-15
aF0.0009365346523316327
aF0.003598107020705711
aF0.0011837205893090374
aF0.0015248648392836082
aF0.0014376311886446062
aF1.1882621484984955e-15
aF0.0032038548291488432
aF0.00015694837141286028
aF7.963094850448834e-05
aF0.0013450987646095192
aF0.001764492572845734
aF0.00012814288256908333
aF0.0009601577893993777
aF0.0015526944571885078
aF0.003208285551668822
aF0.0005117163347352836
aF0.005275869549736068
aF0.0004119162454024797
aF1.990483970565473e-16
aF0.0009551282388336447
aF0.0002082557670405446
aF0.00020058497871629018
aF0.0001520516107884058
aF6.0142470320279997e-05
aF0.0007382548537613843
aF0.001808771736302456
aF0.0012704746425478536
aF0.0013430514897503165
aF0.0021021862332348254
aF0.001508428872113477
aF0.002982922257987233
aF0.001592095049210167
aF0.0002826304736947903
aF6.65631794383705e-06
aF5.619667099298972e-16
aF0.0013297745115391586
aF7.083601721969234e-05
aF0.0033096366888180433
aF0.0009435003252644321
aF0.00040013619171075414
aF0.0018738702845482332
aF2.077874095002517e-16
aF7.478613499424596e-16
aF0.0015877077384504003
aF0.00040172668392579163
aF0.005108909738843583
aF0.000894770893357263
aF0.0005251208892041467
aF1.050918211294219e-15
aF0.0016116465717013562
aF0.001414448343103614
aF0.002328689379441564
aF0.0002627466006398343
aF0.0005326358633856744
aF4.187291374215439e-16
aF0.00020749359056907083
aF0.0018478215225211025
aF0.0006947560092970296
aF0.00012664636749777338
aF4.551828016178909e-05
aF0.001263331865399613
aF0.0007213749533859003
aF0.0011626671490868035
aF0.0031313380946167446
aF0.0002664614597691339
aF0.0017518405301813619
aF0.0018727841166755212
aF0.0019164336710594241
aF0.001008937889796394
aF9.770633769227234e-05
aF0.0004108725857844046
aF0.0015157765014593779
aF0.003344110601972227
aF0.002830070785625769
aF0.0009770117192138966
aF2.402237422439647e-16
aF2.3217792907504993e-16
aF0.0024391601142200754
aF0.0005150414204693124
aF0.0003988737519703268
aF8.555397272226851e-05
aF0.0009595911271748668
aF0.0005100377094693586
aF0.0013047721694238361
aF0.0023551928787259257
aF0.0016496411356392126
aF0.00016405826090800063
aF0.00041908112587609657
aF0.0005626101159452292
aF0.0015207152992189113
aF0.0002076215829208071
aF0.0005937681720984508
aF0.0006078509114589778
aF0.0007840573180502748
aF0.0053545002165205
aF0.0015456136789334131
aF0.0012547394396779342
aF0.00042933759382974244
aF1.0078060821210013e-15
aF8.174684356989647e-14
aF3.5186949303067095e-05
aF0.00023222730212543347
aF0.0003646010194783617
aF0.0012986867662308432
aF0.0009698264488515045
aF0.00013018068797404154
aF1.532289361416145e-17
aF0.0003150063978570798
aF0.00013933796863491206
aF0.002501344269161149
aF0.006429227898344241
aF0.003106391837883602
aF0.0022170615017588196
aF0.0040980163677113
aF0.0003643793598831175
aF0.0005963646387505311
aF0.000371819981846641
aF0.0011593074979446938
aF0.001638108427310701
aF0.0009930081445280448
aF0.00015619397652783326
aF1.0872833876710824e-05
aF1.1795590075332974e-15
aF0.00014450787361873466
aF0.00226851078737501
aF0.002969727642751821
aF0.0002216772264996865
aF0.0027455692843029247
aF0.00027588661315223784
aF0.0015126753255960959
aF0.0035282106580455954
aF0.002632846541840823
aF0.0009123788413500797
aF0.0008709102909410112
aF9.911952078059568e-16
aF8.79619830356614e-16
aF0.0012954759603437964
aF0.0001224453990058016
aF0.001070290816388168
aF0.0006595149303924193
aF0.0002640212452044829
aF2.7691569314668283e-07
aF4.4454884334380095e-15
aF1.2606758538939034e-15
aF4.607645155793331e-17
aF1.2655169083667697e-15
aF2.739736406725809e-16
aF0.0003276831762234028
aF0.001348817960387703
aF5.704342326183117e-05
aF2.4982467598800482e-05
aF0.009403756850512757
aF0.0001867911514409364
aF0.0010167080287844569
aF0.002325930843491326
aF0.00030541166907326446
aF5.399046481087642e-05
aF4.855071998561298e-16
aF7.313779641222065e-17
aF4.888753615496003e-16
aF0.0005737921729709061
aF0.0013292992663892647
aF0.00012236991516432474
aF0.0001260374005168682
aF0.0010781996432438943
aF0.00012561082292775368
aF0.014742219402862997
aF0.0005662255329888246
aF1.0992725473067927e-15
aF0.0008884212646418143
aF0.001284161124751589
aF4.961064250453192e-05
aF0.0005875450361295344
aF8.688184335502064e-05
aF0.000662503126581209
aF0.00509071408967949
aF0.000666624958098844
aF0.0004400142508212654
aF9.736990706892088e-16
aF0.005686416026143785
aF0.0014114807402900934
aF6.891797138563366e-05
aF8.248191826372156e-05
aF0.0005183250921287104
aF0.0002190742253071489
aF0.00029965058470704276
aF5.700825773681321e-05
aF1.3691882811152493e-15
aF0.001620839959170732
aF0.0003323273742817574
aF4.9984710281228535e-05
aF0.0005268115293828479
aF0.005298828101575066
aF0.0004622901574347867
aF0.00022010986263016407
aF0.00012032736919079114
aF0.00027581865145135705
aF0.0053069053477621765
aF0.0011656734503242684
aF0.0010911326786586862
aF0.0024195635947108587
aF0.0003034077566936178
aF5.032244528475302e-05
aF8.046434165332082e-05
aF0.0011091532341625217
aF0.0012603805180230084
aF0.0003308709289198879
aF0.0003475963216405092
aF0.00028589500864839655
aF3.3080838987532776e-05
aF9.604455782381107e-05
aF0.0008163973746356356
aF0.002522317056876998
aF0.0002898776129946887
aF9.625509341473028e-05
aF0.0005864282119853162
aF5.4776502844138275e-05
aF1.5513782094650868e-05
aF0.00013073475341592936
aF0.0004704239587123771
aF0.0003457405857758573
aF0.000330666957115184
aF0.0017213129044872956
aF0.0009847019494685805
aF0.0006574848860345754
aF0.00043925542759185894
aF1.794352334478415e-05
aF0.002518478025522023
aF0.0009751645008483027
aF0.0013369707132434567
aF0.0003125313989672736
aF0.0017820077469050215
aF0.0020717934834773534
aF0.0038463571059283337
aF0.00011496149913466165
aF0.00017384275865737578
aF0.0009227487208843912
aF0.005446821824505209
aF0.00947131142910774
aF9.30282958024788e-16
aF0.0007630083800545069
aF0.0010680109417688921
aF0.0013967799971987911
aF0.00476555206530677
aF0.0005647552782999235
aF8.369976146635738e-05
aF2.0046381183881698e-16
aF8.876895314518176e-17
aF7.783676633956317e-16
aF0.00014201152576270068
aF0.0007011473105501137
aF0.001240657623650018
aF0.00155857245700834
aF2.895142127843202e-05
aF2.614170931782889e-15
aF0.0051045252333941195
aF6.09051702500726e-05
aF0.0003309339706979349
aF0.0012598686213077213
aF1.7123952063849012e-14
aF0.006911650001205788
aF0.00034361266695849275
aF0.0007079478367577667
aF7.305279437385752e-05
aF3.4498171177047128e-15
aF7.222104872362959e-16
aF8.015010519152588e-05
aF0.0011473306592309814
aF0.001559533861865693
aF6.83610635506399e-16
aF4.934495849197838e-14
aF4.5707726441063455e-14
aF0.0024711633864466305
aF0.0002603049741031746
aF0.0036789509975704805
aF0.0051237930819958205
aF0.0014036699440008007
aF0.0005729173431913622
aF0.0018235751854734775
aF0.0032850355426874036
aF0.0068431198775199265
aF0.0033995839792926204
aF0.0027676865891989623
aF0.0007198518341761013
aF0.0002502982761084009
aF0.011302147307492379
aF0.00034552744726449116
aF0.0025910145392706676
aF0.0003532703528019914
aF0.00015777703986221607
aF0.001676217840153853
aF0.0003025986943720604
aF0.0004362020174987556
aF0.0015849970762311198
aF0.0012676962502993678
aF1.7220713009717994e-05
aF0.0004748619478361691
aF0.000259499613465826
aF9.130597501291244e-05
aF0.002354085396780525
aF0.00013207606841882693
aF0.0010221091326469227
aF0.0001480031555558591
aF0.0001959909820993386
aF0.0001208926297440082
aF2.1702145478145047e-05
aF6.185223959835686e-05
aF0.00481426638093251
aF0.003010346421401104
aF8.524375883528363e-05
aF0.00016427421848316687
aF0.011319375687872165
aF0.0014064445894567627
aF0.00022080091816935654
aF0.0038390017496004983
aF0.00047812611990424235
aF9.248763746741318e-05
aF0.0036641256274656466
aF0.0008394071770984353
aF0.002943177150118268
aF0.00011991886903181003
aF0.0014675986632144463
aF0.0022411952753969328
aF0.0008786764935391986
aF0.0006969315436166895
aF0.0005306955828410965
aF0.002524819491198581
aF0.00030897591394487607
aF0.00056834956941
aF0.005202612047254433
aF0.0003684169627783381
aF0.0004910792532773695
aF0.001158724240089807
aF0.0011436729369586206
aF0.001430786424144238
aF0.00017290195554999215
aF0.00045461151097698116
aF0.0001380448427788324
aF0.002435285696563073
aF0.002695988595827507
aF0.0024517321903209247
aF0.0009162754485432813
aF0.0008080429506366119
aF0.0009676330342235207
aF0.00029831484579308774
aF0.00036596254462884577
aF0.010858250058117552
aF0.0032581467998909846
aF0.0008892360182555299
aF0.0008160922343885793
aF0.001420086526470822
aF3.7927417197537216e-05
aF0.0021240884094236305
aF0.00282758245767601
aF0.002061096509275344
aF0.0004024065318531392
aF0.004612976667339064
aF0.002185860327725298
aF0.0005689474855323059
aF0.0021841257138328933
aF0.0002065527235833002
aF0.0008643277419170469
aF0.00030850564465680595
aF0.00012407057179473352
aF0.0004115528068682177
aF0.00033289741309464494
aF0.0011507554355887357
aF0.00025085960998836
aF0.0012949514264645472
aF0.0006972776421429039
aF0.006334287249571301
aF0.00219148482056329
aF0.000895773444520356
aF0.0009381614634077299
aF0.0018621868382413984
aF0.0002332093421421426
aF0.008311670900662645
aF0.0005435758822445392
aF0.0010516404711212427
aF0.00040500180410369703
aF0.0012444431836315388
aF0.0005103974536383595
aF9.51559572837836e-05
aF0.004838625182130527
aF0.0013110037114277598
aF0.0011718050993016584
aF0.0019366153217529902
aF0.00023634419526270608
aF0.002676299307723769
aF0.0007327310710578257
aF8.27606221004026e-05
aF0.0011898469998683993
aF0.0035186057675378724
aF8.76380083136758e-05
aF0.0022505186621345555
aF0.0008781348163652677
aF0.0005296051859384681
aF0.0029476635696832195
aF0.000410806009016943
aF0.0025867479791367846
aF0.0013548052844772
aF0.001586871604727875
aF0.0010140696572679465
aF0.001260019948965138
aF0.0016495033189358804
aF0.00021046661436203813
aF0.004599007024651708
aF0.0014410082771531452
aF0.0011970542899863233
aF0.00011722379456135658
aF0.0002478270145911811
aF0.0007757523635076396
aF0.0005534061508929789
aF0.0002665527884531356
aF0.00012062289471658879
aF0.0007721309316268985
aF0.0004859310799752162
aF7.576681879141196e-05
aF0.0012074558211066819
aF0.0006262718513304507
aF0.003182246748947799
aF0.0014376095083248387
aF0.0014685039509464166
aF0.0023135654924461265
aF0.0003356453846365572
aF0.003783525706949109
aF0.0002767072962508494
aF0.0021008534589137574
aF0.0007227263307291928
aF0.00011901920667384531
aF2.8280043492977767e-05
aF7.746532609760605e-05
aF0.0007012176762518907
aF0.0004972635261587978
aF1.7538681406766267e-15
aF7.751311054545707e-05
aF2.0661833075060634e-05
aF0.00036914666124507887
aF0.0002955820340746191
aF0.0002765367146535077
aF0.0014959546770766542
aF7.130866912886508e-05
aF0.0010511683975895326
aF0.0005855646893468717
aF8.141232530528454e-05
aF0.002413544171144262
aF2.9963988529267843e-16
aF3.116165301780149e-05
aF0.001201598122195178
aF0.0005454540207933899
aF0.000683280885055598
aF0.0056825827469707485
aF0.002959218197895339
aF1.8838956035511707e-15
aF3.8309988306664766e-07
aF7.943105536452819e-06
aF3.423272774119728e-06
aF0.0002963889381449737
aF0.0001727267367950001
aF0.0001115785250646883
aF1.6127315624664842e-05
aF5.2613346101355006e-05
aF1.1847805253084673e-15
aF5.750469985261597e-17
aF6.433610898524825e-16
aF2.7666741100956224e-16
aF0.00048425861177277556
aF0.001166115683886674
aF0.0011661789591853968
aF0.003235504990663177
aF0.00027101218481738785
aF0.013853282407028752
aF2.284883902471552e-05
aF0.0007260767438176702
aF0.0009181693351274037
aF0.00029543993023089686
aF0.00021999170177931047
aF1.8082089613964073e-16
aF0.00017940275348012153
aF0.00309182121273688
aF0.0005900033722051031
aF0.0002740589148244064
aF2.6143821228457938e-05
aF0.0005542727611341588
aF0.0031122133679934954
aF0.0002677610217173945
aF0.0006031890320050281
aF6.969427925263869e-05
aF0.0010078170987374122
aF0.004419036566556379
aF0.0015679192806169126
aF0.0009670365180692783
aF0.00011417044721076877
aF0.001193763401842756
aF0.0017359623465946679
aF0.0028459558285885912
aF0.002093787683657678
aF0.0002879521122492755
aF0.0003357374285037404
aF0.0008212728827798382
aF0.00022987833985445557
aF0.0002028923724427179
aF7.072248250055728e-05
aF0.00044290871831261327
aF0.00045617657937614936
aF0.00038480700610316764
aF0.00037351905886213516
aF5.214216290206725e-16
aF5.044285147396503e-15
aF5.6772290542490075e-16
aF1.2457936732417933e-15
aF7.17148194972595e-16
aF4.541341144625179e-16
aF1.2448276778876786e-15
aF1.117336984503584e-17
aF4.2011187162676223e-16
aF1.3775576334717915e-05
aF1.0720211232800664e-05
aF0.003305133860694066
aF0.0006648909468522932
aF0.0015488319710504456
aF0.00015909422489365953
aF0.00017526684118869044
aF0.00028133871466210424
aF0.00042292912479631554
aF6.28110425397189e-16
aF0.0022380224116596375
aF0.0006476098297802133
aF0.00019220248847490914
aF7.746034857018219e-05
aF5.1537441381848305e-05
aF0.0009308444121012472
aF0.0004800815595202035
aF3.136799676310837e-05
aF6.864581053980719e-05
aF0.0027602918075853786
aF0.0002687221474005269
aF0.0004907623176833025
aF0.0002930790952502852
aF0.0005373657293925134
aF0.010928805969019134
aF0.0016651117692224786
aF0.0016636368680842334
aF0.0012478865067689637
aF0.0018435697995423668
aF0.0033117675484716554
aF0.0003153573217004401
aF0.0013197983930846422
aF0.00013304863863136475
aF0.0007985047588710684
aF0.0023505459078558355
aF0.0009759762033617832
aF3.294735887805259e-05
aF0.000995155564643174
aF0.0005150621090479186
aF0.002177510306695383
aF0.0006404960963851878
aF0.0006352408477256602
aF0.0005842203718986818
aF0.008024065504359738
aF5.611848727228306e-05
aF0.0007113393409733536
aF5.3074842428090896e-05
aF6.733233493273499e-05
aF0.00048464224103045793
aF0.00027619968409271426
aF0.00014417889352826067
aF6.658633756505902e-05
aF0.000753359332235646
aF0.001248891396328667
aF0.0007125960452243057
aF0.0010331402172349814
aF0.0008925997548290055
aF0.0009290931189304551
aF0.002496252008649619
aF0.000739391118625021
aF0.003066352431495602
aF0.0012653847837860003
aF0.0020507132190083887
aF0.0008292655532565646
aF0.002044884325055013
aF0.00013371737242327193
aF6.309459501240738e-05
aF6.860349247656716e-05
aF0.00019110569831091702
aF3.526044565300942e-05
aF3.993002154667102e-16
aF2.9939821136939003e-16
aF3.569196525821991e-16
aF1.1617627876230501e-15
aF3.864921266362441e-15
aF1.468779859310214e-15
aF4.565458629278505e-17
aF2.8318364068308638e-05
aF6.210799822804511e-06
aF0.0003949615717104364
aF0.0011724480955808633
aF0.0005075093343264586
aF3.482004977991591e-05
aF0.00010987721821142237
aF0.0001411154293582372
aF0.002564876496238519
aF0.0007894466950913188
aF0.0007717265924487277
aF0.0010369134254730645
aF0.0004027100733809482
aF0.0005151795985823129
aF0.0008064087256235403
aF0.005343783927918417
aF0.0007054448180476118
aF4.477031925726766e-05
aF0.002439399761103498
aF0.0008018752303825186
aF0.005351929702347096
aF0.0028646376430161487
aF0.0001901216469943501
aF0.0027545203925008798
aF0.00026606657040207895
aF0.000390294772149503
aF0.00047350263699078075
aF0.0013615325533827647
aF0.00010551836509628324
aF0.00034310975597965667
aF0.00029686350150480006
aF0.005133904254408918
aF0.00039520520362264965
aF0.006721030418708253
aF0.00012625511757701605
aF6.304311433497592e-05
aF0.0008017278066036257
aF0.0009763888423852773
aF0.0016068817081509917
aF0.00012190342972976923
aF0.0008004844288895846
aF4.4412408592781246e-05
aF0.002553259637983083
aF0.0029949231308171636
aF0.0029019524142419
aF0.00018194487003811812
aF0.00043731205246082196
aF0.000811083106775483
aF0.0028714987217762626
aF0.0018063932619959567
aF0.0016720645832161874
aF0.009809462368747305
aF6.78966716198945e-05
aF0.0024598542104452446
aF0.0025544690502138645
aF0.0006789234895166382
aF0.0015740487588161022
aF0.0001516429050340385
aF0.0007590602897275674
aF0.0010606393556271778
aF0.0005134891763772217
aF0.00010381856368825441
aF0.004595082259204591
aF0.0020437893580523784
aF0.002067836977237608
aF0.0008115834231189055
aF0.0012274622213132036
aF0.000145481671372227
aF8.779941972811051e-05
aF7.329302030559071e-05
aF0.0022877570764222124
aF0.00026178048870655534
aF0.0001839790192199171
aF0.00028006088578635263
aF0.00028559284686319495
aF0.00011245163701287838
aF0.00019969417166676461
aF0.0011334748087408724
aF0.0018217353076998431
aF0.0007389353066021576
aF0.00037804706286542083
aF0.0009200959346725536
aF0.0004363590123014455
aF0.00015548457207987133
aF0.0002036427885782549
aF0.00015845788281667396
aF0.00014885410599254232
aF1.696177657874669e-15
aF2.2887891622188103e-16
aF1.0015901843872863e-15
aF2.7691676686415845e-16
aF4.898410549278119e-16
aF2.0712706627608e-16
aF1.3555577568096366e-15
aF6.411646937841143e-06
aF7.588697197524048e-15
aF3.726217398821674e-16
aF6.865743815834493e-16
aF7.738161593180938e-07
aF1.1800698144965886e-05
aF0.00047182279019562253
aF1.2383888765406851e-05
aF1.3337444556910499e-15
aF0.00389293935920464
aF0.0010049085335980489
aF0.0015669981153098385
aF0.0006477415761237716
aF0.0002797697724666776
aF0.00038046194465635993
aF0.0028671282269934254
aF3.552537329872477e-05
aF0.0020893708017462103
aF0.0005327017496986694
aF0.0006433663985241367
aF0.00642092516483192
aF0.0005770900231268082
aF0.0001948375458490614
aF0.0001291052180607536
aF0.006970289181660847
aF0.0006415902864847447
aF0.0001598216598902234
aF0.00048318140534026516
aF0.0030363345697976864
aF0.0019120904489092485
aF0.0011210209999079168
aF0.0011629718778427898
aF0.0015485441510878762
aF0.0003268345129403535
aF0.0009109864837024281
aF0.0007026189810261733
aF1.6379957957038032e-05
aF0.0004280202344493089
aF0.0008665263012203507
aF0.0005367154599582574
aF0.0010445041149776226
aF0.0034082629573096808
aF0.0011834988711736435
aF3.46882246521598e-05
aF0.00019281602703308652
aF0.0012555806040244106
aF0.00042195995329352194
aF0.00129905274879376
aF0.0009087967539446469
aF0.0037398055633643254
aF0.0010042890382505464
aF0.0004253333211798686
aF0.00018534572747867353
aF0.004465949145227265
aF0.0006276847583363196
aF0.0008375618717328571
aF0.0020259021328399404
aF0.0006730364795222831
aF0.0027724190128524512
aF0.0006452240996767621
aF0.00038602604369405584
aF0.0002733135208799011
aF8.421182454680183e-05
aF0.00015626656697443307
aF0.002487404031805967
aF0.005167263892446262
aF0.0012044311049055757
aF0.0008481841361534817
aF7.44593024997767e-05
aF4.2624212627221525e-05
aF7.0209079700966065e-06
aF0.00012681893322053243
aF0.00171999590264321
aF0.0006456221059642259
aF5.3569352319551166e-05
aF1.0853108554725325e-14
aF0.00026258910551104584
aF0.0014498063416674323
aF0.00015216046090139
aF0.00011490597798997053
aF0.00018079233759874625
aF0.00029833205386498534
aF0.002049433652118272
aF0.0010032275973243996
aF0.0006621234385242393
aF5.353104642635043e-05
aF4.6605392745966715e-05
aF0.00011759730878334104
aF0.0004901733765566871
aF4.56416909470279e-05
aF1.888169803366203e-17
aF0.0043262314980944015
aF0.0009815204226338212
aF0.0004908884084833938
aF2.323929279422694e-16
aF0.001253669578109475
aF0.0010328195311618466
aF0.0001667834596324495
aF0.0007778721486339431
aF0.0010729392073269765
aF0.000962890266610146
aF0.00020120330192056055
aF0.000252426109313762
aF0.00016511978293181625
aF0.0006710529175141369
aF0.0006325811897925631
aF0.002295803818604642
aF0.000558889193793486
aF0.0002454082622697543
aF0.0008716607912501555
aF0.0005110574033780477
aF0.0009007615407604099
aF5.935941725174768e-05
aF0.0003425159913639383
aF0.00278323716863115
aF0.0004989256301816766
aF0.0024884639780339926
aF0.0012122573875375797
aF0.0011533759809117796
aF0.0006477107915642994
aF0.0007147567968353281
aF0.005799607837337659
aF0.00046767670487448895
aF0.0019469593585958716
aF0.0004916113694523223
aF0.0006453948054800705
aF1.8044328977420277e-16
aF2.521453258516261e-16
aF0.0018394857105554084
aF0.0007133926805595519
aF0.0003464007419751987
aF0.0003423048407221661
aF0.00023208810095851456
aF0.00212971151342985
aF0.0006000820437004072
aF0.00024805518859682973
aF1.999585121492735e-05
aF1.917645648234404e-05
aF2.3931123078954313e-16
aF1.418694693807125e-15
aF6.319867796033709e-16
aF5.1808416103394964e-17
aF1.0621893475600999e-16
aF2.2075688311403385e-16
aF6.26364259621829e-05
aF5.087719022404664e-16
aF0.0005014823632711615
aF0.0008075256454656029
aF4.510700031806077e-16
aF0.0014647662776155067
aF0.0020674140196427796
aF0.0002690629445882275
aF0.00021024557126268743
aF0.0027644646396180737
aF0.0005852145737100945
aF0.00163525314938441
aF0.003425152985696693
aF0.0010497296871354435
aF0.0012072102270477333
aF0.00044348013525799594
aF6.914899642594536e-05
aF0.0021398080366123095
aF0.0046380254938708275
aF0.0008575827037793528
aF0.00031049796881034897
aF0.000751288542195488
aF0.0005396110772949491
aF0.00011132474677621279
aF0.0006188268230655575
aF0.0015911322074592341
aF0.007063842035143288
aF0.0016535459495169696
aF0.00016464067901810828
aF0.0006893296727389579
aF0.0016084966198706295
aF0.002641894102942049
aF0.0048365162936731985
aF0.0019625206914966565
aF0.0005320983237161445
aF0.0006821037127780742
aF1.0560549770317696e-15
aF0.001368272620225733
aF1.2091121869020098e-17
aF0.00044462047737889543
aF0.001033408455022198
aF0.00032445204528217897
aF0.0004816815540537383
aF0.0005685139401415749
aF0.0009507728290152969
aF0.007589670898349448
aF0.005040824691615914
aF0.0003441705201383109
aF0.0007127581077772929
aF0.0003401294156423417
aF0.0013228437523652647
aF9.928156581906485e-18
aF9.888860395895002e-16
aF0.0002078550634105308
aF0.00031086229669430386
aF0.0008368203515594153
aF0.0014731019267020533
aF3.65447391921849e-05
aF0.0005515665690992684
aF0.0008989017333551431
aF0.001735768495999719
aF0.0022569167580712376
aF0.00014473019695454155
aF3.8795212404845276e-05
aF0.0005893565038195531
aF8.243247708632792e-05
aF0.00019783169806523518
aF0.0011827833906279416
aF0.0021639113258396445
aF0.0029820511624833418
aF0.003035886523579993
aF0.00024239268809134968
aF0.0002627667096310618
aF0.0004331319033787215
aF0.0001224356281627195
aF0.0005343250082418275
aF0.0016288600106434234
aF0.006223809653680793
aF0.00017048377010673782
aF0.0017073950615401113
aF0.002268188592037321
aF0.00031067065961134404
aF0.004409262170450443
aF0.0061101352984869245
aF0.0036374720408351878
aF6.742520299179923e-05
aF0.001658340616859565
aF0.0005763544997185007
aF0.0007835434827764612
aF0.006214336855582705
aF0.005800724312449191
aF0.0010620501005417012
aF0.0004207252935330728
aF0.00011795103207873982
aF0.0003657037670349281
aF0.00011764943928949718
aF1.0676523168152526e-16
aF4.713588419055577e-05
aF3.964871015599691e-05
aF0.0064836487321911305
aF0.0007258971597017343
aF0.0008245730967589225
aF0.005133010025352975
aF5.547677659276366e-16
aF9.241585724216118e-16
aF0.00047034054072047103
aF7.533024744897518e-05
aF0.00020449453629578103
aF6.013228758671256e-05
aF3.146136217614735e-05
aF0.0002832155559534068
aF0.002392189963937701
aF0.00019600255453047175
aF0.00014650854321210166
aF0.00042706035405046364
aF0.0006681503847625104
aF0.00410077991188685
aF0.0010880962895274265
aF0.010349764145135857
aF0.0005482447366316511
aF0.0014509842620656615
aF0.01070844211012242
aF0.00321504171092077
aF1.99259269137138e-15
aF0.0003486407565032184
aF5.0544662608070804e-05
aF0.0026123185220584843
aF0.0028067257192127986
aF1.6940126940186007e-16
aF1.1302593648213962e-15
aF0.0053683674455576305
aF7.274033854855983e-05
aF0.0001682662839078522
aF0.001562442577296986
aF0.013967806183017368
aF0.0017980219762723216
aF0.00010754333085518274
aF0.0003388735829673136
aF0.0021115516030716023
aF0.00027058586179633145
aF0.0001641854412201566
aF0.0005384939956062643
aF0.00037290088858882157
aF0.0002186954549844783
aF0.0008291193246465232
aF1.3460357702005869e-15
aF3.4077197076219524e-16
aF0.0006588132055994688
aF0.001125265577847772
aF0.004078397620097876
aF0.0006307535657579884
aF0.0009414901323644704
aF3.774811258709019e-05
aF0.0030191532605868196
aF0.0005339653366190249
aF0.00957867511842019
aF0.0013780826724591265
aF0.0011879728484124798
aF0.0005704432078995188
aF0.0002282641350897442
aF0.002535712500159121
aF0.0004065888212720575
aF0.002308884992406663
aF0.00016204420307481046
aF0.009202468064851223
aF0.0003719603543147932
aF0.0012416078927911353
aF0.0011760729466342692
aF2.0167965850042145e-05
aF2.2879583110181738e-05
aF0.0011329217808666572
aF0.0018114268924363964
aF0.0003910887227922109
aF0.003762599345517962
aF0.0003461081471986862
aF0.0001601101602485881
aF9.147247890497472e-06
aF0.003904237099875406
aF0.005970265798849696
aF0.0003124995259798875
aF5.303627520494707e-15
aF1.645075439357224e-14
aF0.015138157648162228
aF4.1743660543243966e-05
aF0.00013442671461832577
aF0.009262264856584835
aF0.0007388562410348984
aF0.00015209306551573122
aF0.017420220794699803
aF0.000283725622553066
aF0.0003319071687233266
aF0.0008072758247002908
aF0.0015500188511778019
aF0.00015979639154679393
aF0.0006310045443111727
aF0.0008930003152120065
aF0.0004687574617745341
aF6.111682199031668e-05
aF1.065887124585241e-05
aF0.00042926559390594517
aF0.004929317271648409
aF0.01190998143708449
aF0.0013388216157337106
aF0.000497578572347715
aF0.00113688035495653
aF0.0010973890840394944
aF0.00024147921049247074
aF0.004584450746010314
aF0.0007122291298768342
aF5.518065133823864e-16
aF0.002598762247651708
aF0.004186903246614515
aF0.0009217804843827781
aF0.0034828244260716036
aF0.0026604543350745645
aF0.0019948143748765076
aF0.002239023295292759
aF0.0022596263637922236
aF0.00025966939346491215
aF0.0004605640326973282
aF0.003104225173239254
aF7.572140276802918e-05
aF0.00027591064586625987
aF0.0018929451180866941
aF0.010287862916791662
aF0.003333772348290372
aF0.0004086646251039125
aF0.0005336361633314462
aF0.0003270674260438209
aF0.010090099129546427
aF0.0007581710863337284
aF0.0014635075314794748
aF0.010724765478530048
aF0.009982875393516007
aF0.000927902127252789
aF0.0009080522506550113
aF0.0012272702204157875
aF0.00022773434973903813
aF0.00029589789595879315
aF0.00020668822702912628
aF0.0004978521618517562
aF0.0002501482427245272
aF0.000573668514254232
aF0.00959327633127048
aF0.001388238747107922
aF0.0021223189203849516
aF0.0001909329615055444
aF0.0005884196661480903
aF0.0030273798923463914
aF0.0006049890056088904
aF0.0001522287861928973
aF0.00019240457117083285
aF0.0017919551337217685
aF0.006001545235170416
aF7.852760338907974e-05
aF0.00010971607053279551
aF0.0008200640552226313
aF0.0004260821388401281
aF0.008768287905697263
aF0.00038976793792947807
aF0.0028605877194112003
aF9.162032914525008e-05
aF0.0005525960021320875
aF0.0010336697018006175
aF0.0006630734204414472
aF0.0010664968197610393
aF9.50922021643132e-05
aF0.012494168262248043
aF0.004321152507146681
aF0.0037451746517423905
aF0.0017245630807822096
aF0.0014715279293383912
aF0.0004953770667545561
aF0.0002663368853224043
aF0.007446757228205862
aF0.000446287139482824
aF5.9653650504619e-16
aF0.0002041182307756344
aF0.00021732208167190678
aF0.00021512767173100173
aF0.0019346590436766726
aF0.0005830610787682216
aF0.0009483557939067712
aF0.0022029547400872866
aF6.182501734215042e-05
aF0.00018112822835537453
aF0.001435044853984605
aF0.0010385937161804092
aF0.0033398649397609775
aF0.0036832554189619175
aF0.0015459191884719177
aF0.0005804189194950776
aF3.114297414905835e-05
aF0.001958307925302636
aF0.00012610511142521964
aF0.0014209149221353122
aF6.460349294193139e-05
aF0.0004293647485915792
aF2.1459104792653825e-15
aF4.538770695158571e-15
aF7.327528298474763e-05
aF1.0484932126208582e-15
aF7.358796090984359e-16
aF4.6785385821386375e-05
aF1.3014699721936477e-15
aF0.004924741433297525
aF0.001096189776079529
aF0.00021481492279974023
aF0.003119859867626958
aF0.00285916767565981
aF6.656297977313108e-05
aF0.0007577036969694145
aF0.0028889415362537128
aF0.005936511973703775
aF0.0038328908143929756
aF0.0015058553178446314
aF0.0019283128295052184
aF0.008313610729024088
aF0.009240580532063074
aF0.0005701139216782876
aF0.007058679832219215
aF0.005045814385972241
aF0.000141079571408651
aF8.519266219315153e-05
aF8.707671445460036e-15
aF4.370034721505279e-15
aF2.792179185291532e-15
aF1.3049957880080896e-15
aF0.01651292379012523
aF0.006405660932710416
aF0.005571950662228362
aF0.00810581519408094
aF0.0026252553743424784
aF0.001282445367461949
aF0.00046335817103901745
aF0.0011437401549777646
aF0.0010346077271416376
aF0.0008094980359987505
aF0.010354712504535147
aF0.0031508831355009925
aF0.0037243752371140058
aF0.0024297490604842254
aF0.00021768894177157065
aF6.441903135578764e-05
aF0.000449625281264177
aF0.0016921697541192463
aF0.00035502553984394214
aF0.0024885529294653517
aF0.00260026293068207
aF0.0023438584976077604
aF0.00015698000455121062
aF4.7745347672063825e-05
aF0.00014725425276161723
aF0.016487790696159108
aF0.004285821330978026
aF1.4483742710669935e-05
aF2.980885364802709e-05
aF0.0017467265234996285
aF5.1704250484061856e-05
aF0.01584022481871818
aF0.003317950940387268
aF0.00014151609628160447
aF0.0018433656539868838
aF0.0004935255721658876
aF0.0029052760160384918
aF0.0060090600375564
aF0.003324810042972211
aF0.009369286457084534
aF0.0036411666626397377
aF0.001213558835219615
aF0.0007533001896718743
aF0.00033963220802004463
aF0.000968607310422569
aF0.0011316374446987284
aF0.0001380372051207848
aF0.0006938640431073704
aF0.00018938960785310784
aF0.00018834845277664804
aF0.0010208060043421625
aF2.0443242551199468e-15
aF4.96481081995656e-16
aF1.593756607153487e-05
aF5.606779669200837e-05
aF4.62945171971887e-06
aF3.4923089827663967e-16
aF1.988666796575252e-15
aF1.067859825310797e-15
aF7.631627284150208e-05
aF2.3047815061714408e-05
aF8.195308857213738e-16
aF6.7710035982831e-15
aF0.005426855964716271
aF0.02150623428435051
aF0.001013662575745291
aF0.0014990184618745726
aF8.113919969380385e-05
aF0.003784933499265039
aF0.00017094218690177036
aF0.0013498577940770514
aF0.00017288132457710784
aF0.002311257357942285
aF0.0005588454606224345
aF0.001685993502731425
aF0.00018080745056877191
aF0.0007988876500067682
aF6.860466298384858e-05
aF0.0038181289501034773
aF2.8929726265588868e-05
aF0.006446575859055108
aF0.0002180383784655983
aF0.0004028190033898127
aF0.002430049735232149
aF0.006469357554038164
aF0.00012921546353002983
aF0.0008546861832198078
aF0.00035803576524971774
aF0.0007616111975160181
aF0.0006330101031258402
aF0.0005040979214045693
aF0.0028068504514995683
aF0.001856262493220308
aF0.0013412718334439922
aF0.0006777553444853103
aF0.0010049236512774818
aF0.005358595317811202
aF0.005441793885781185
aF0.0015242844962252272
aF0.001606798666340299
aF0.015943153143817706
aF0.0008739587040856877
aF0.0007250582628349299
aF0.0029140281456222442
aF0.0005679953301006064
aF5.47436687803011e-05
aF0.0014141733023756199
aF0.0003098200439402304
aF0.00027439788238502725
aF0.00023586863224089568
aF8.054923401571962e-05
aF0.001673111832291813
aF0.009294168360154972
aF0.009462452782689446
aF0.0024191361412769295
aF0.00029140731212634136
aF0.00037087094168449176
aF0.0019708016178626134
aF0.002108098086213724
aF0.007476002138210756
aF0.0003493396430255507
aF0.00034699572231668916
aF0.0005831785818142499
aF0.00024032510853141804
aF0.0007637190492810402
aF5.738184434672022e-05
aF3.0378527393933855e-17
aF0.00016234718518781847
aF0.0020430901039803794
aF0.00017954903582802052
aF1.3886998372695324e-05
aF0.000455495770505058
aF0.0006600746563825427
aF0.00046127501897808845
aF0.0010267201609048455
aF0.0006666383078142097
aF0.00045238863771976753
aF0.0001448872488577944
aF0.0006110869750634933
aF6.85623703111665e-05
aF0.00031833752483512054
aF0.001947262766299649
aF0.0001424726611417364
aF0.00017298796636462178
aF0.0010415820833625832
aF0.0024501804990959847
aF8.32692188554221e-16
aF5.207265233836681e-16
aF5.7817495004351544e-15
aF5.650801525592681e-15
aF1.4034921414296083e-15
aF4.736714804114362e-15
aF2.7931867833148475e-16
aF1.904629500594888e-15
aF2.4105843313708545e-16
aF0.00023559558489988814
aF5.365418818406364e-15
aF1.5410855295180005e-06
aF3.4996798947254227e-16
aF3.641389252072934e-05
aF2.0406190049846166e-15
aF2.42909787885925e-15
aF0.0010586357066635337
aF2.161435168762629e-15
aF0.0019959003325451465
aF0.0008147314047373621
aF0.0007795589915809778
aF0.001749157469513798
aF0.00014850628686034707
aF0.0034061721178348576
aF0.003284779863504466
aF0.002540565410596788
aF0.0013822399931930859
aF0.0007703685216314912
aF0.0022413521056790066
aF0.0014038761872891522
aF0.0006803778288156884
aF0.0024480170821329266
aF0.006083632034683548
aF0.010934828790202324
aF0.005393603699620677
aF0.00018743301842252848
aF0.0009516973581716909
aF1.9203940471889885e-15
aF0.0002443586395079428
aF0.0020716593143864357
aF0.0013985246541686218
aF0.004231351493439291
aF0.00036661492197788664
aF0.0016130581027010815
aF0.000959289851956453
aF0.004342500554457902
aF0.006081800063861872
aF0.0026894352163079806
aF4.385825624050821e-05
aF0.0008475232398095371
aF0.00047931577011624217
aF0.005480819543677305
aF0.004473254127377562
aF0.003547889244780689
aF0.00018469897040801508
aF8.416919384224812e-05
aF0.0009430325581282803
aF0.0015059740938462363
aF7.32490871122975e-05
aF0.0003926041491091365
aF0.0010047201834031952
aF1.803818326269745e-05
aF0.004165596954984728
aF0.0012119437291905468
aF0.0006058687391195622
aF0.0005085751217409917
aF0.0015472811690887425
aF0.006692776288479038
aF0.002328006197923041
aF0.0014134921965620647
aF0.0016889730970129106
aF0.004601918749288901
aF0.0013309759094009153
aF0.0037247444541930966
aF0.00025884612052255734
aF0.00010981135578276028
aF0.0003550264857363396
aF0.002710155944473576
aF0.002356739949894255
aF0.0025997652451170672
aF0.00456618404618901
aF0.00027689142829217985
aF0.003530461142755699
aF0.0008970767824991941
aF0.006340080529807934
aF0.0005446071332957667
aF0.0016067533324485015
aF0.00011443354762618093
aF0.00612131904174203
aF0.0017858046359686063
aF1.2826839883173296e-05
aF0.0001720862153787627
aF0.0013579344478724703
aF0.001684727242327239
aF0.001695293916354977
aF0.014310233089101863
aF0.006330430764513264
aF0.000248359476609997
aF0.000459747057269555
aF0.005986671921848748
aF0.005425166671713599
aF0.007553039199010268
aF0.0012423246372113977
aF0.00578916805353844
aF0.0003463458414543141
aF0.001429603917597351
aF0.002690248478026741
aF0.0010325994395523348
aF0.00014539446701428998
aF0.0014124313058588873
aF0.00040689761668693934
aF0.006333645695903504
aF0.00278861988017293
aF0.006731029860615212
aF0.0024555433240122876
aF0.0023284738204991597
aF0.0014470332184103036
aF0.001632208356694449
aF0.0013676663495009937
aF0.0056556207423314984
aF0.002305084891166908
aF0.0002139103569247219
aF0.00032142600120297623
aF0.0010473152366873221
aF0.0006820798963301087
aF0.0002447239928085557
aF0.00015164873919400122
aF0.006515012834498881
aF0.008257244991207372
aF0.0012846558634083114
aF0.002634481712787551
aF0.005307964563520323
aF8.731676259634182e-05
aF0.0006584965015116558
aF0.00015985608697425047
aF0.00037924057783504244
aF0.0024751407205428773
aF0.00041841249856960466
aF0.000272814630523739
aF0.00018903601093916706
aF0.0002464692248210713
aF0.0004379073596936272
aF0.002497316369781584
aF0.0011877997146683588
aF0.000324385472408324
aF0.005212090652050277
aF0.0006180582190193532
aF0.0020739613656179114
aF0.0017174906006017078
aF0.0018594288893101563
aF0.0012325755661338257
aF0.0030405340808579
aF8.195624839800141e-05
aF0.004335891157111308
aF0.0035586434675879885
aF0.001663254566185123
aF0.000682500637088358
aF0.0005685595534673917
aF0.005178396579118752
aF0.002347847444993549
aF0.003452889542534276
aF0.0007631239337766886
aF0.0008270215665738959
aF0.0002141815551525231
aF0.0004671316964969705
aF0.00047420710667347933
aF9.427556652327171e-05
aF0.003471528272720951
aF0.0012981558978257214
aF0.00936696959554382
aF0.00020828468864441668
aF0.0001381592178034363
aF1.887026372429129e-05
aF0.0002917213428736909
aF0.0002936258380027337
aF0.00030840974413039055
aF0.00011501740948636626
aF0.0006608313590030356
aF0.0005290534973242544
aF0.000706110476803163
aF0.0003575015453463227
aF0.0023225982957687033
aF7.384622350271784e-05
aF0.00032418549868948137
aF0.004192664621173947
aF0.0020535413578110025
aF0.0012493081880439226
aF8.818502316044201e-05
aF0.00034748071221190783
aF4.9344062215201646e-05
aF4.318937712649001e-16
aF0.001100790993543599
aF0.006545524756445058
aF0.0021214067281363734
aF0.0007114876579450864
aF0.0017037043969811208
aF0.001211265652415478
aF0.002330117448749557
aF0.0002577451635182098
aF0.0011709412311485584
aF7.3089753721687e-17
aF0.0014548438477444685
aF0.005855598573047819
aF0.006345008938080618
aF0.0012301522044656224
aF3.749731583382342e-16
aF3.90057196741103e-15
aF0.00016763966979787908
aF0.00019757681122420723
aF0.00040347882557715566
aF0.00013387909542724407
aF0.002948674673359819
aF0.0025096495609403056
aF0.0011768930654910035
aF5.808629650960598e-05
aF8.42132812556659e-05
aF4.242627729952638e-05
aF0.0007596912693109262
aF0.0024907808794636123
aF0.0013932165789667433
aF0.0040941610662513514
aF0.005152784044614505
aF5.9680416502372865e-05
aF0.0020460739842792963
aF0.0014752935842569344
aF0.0001325609357277973
aF0.0017132911897416038
aF0.000563103139951674
aF0.0022424532217622515
aF0.00045378564118068364
aF0.0002355664789655369
aF0.0009387886893879369
aF3.971170494556419e-05
aF0.002463287009566886
aF0.0018975930984057976
aF0.009836987842858025
aF0.0010389558626607042
aF0.005245958337956619
aF0.00019402202496975702
aF1.6711554190486517e-05
aF0.010304869138358418
aF0.0006588127248521873
aF0.003299176085480777
aF0.0018077265985617591
aF0.0003024961820735999
aF0.00025475064415724435
aF0.0036622169997159097
aF0.004284467695145092
aF0.0007528902146293314
aF0.0010762612813604608
aF0.005494364979736199
aF0.0013465242147743866
aF0.0006874729910836607
aF0.0017683656609173155
aF0.003883960517108259
aF0.0010924377012877468
aF0.0014301028744949343
aF0.0009358373736397724
aF0.0003247054347958141
aF0.001134663790009477
aF0.0005091196501142078
aF0.00036743856278522726
aF0.0012684929135820902
aF0.00037908764757838237
aF0.00033491321493258605
aF6.272961543697759e-05
aF7.92828727512195e-05
aF0.003956519209861691
aF0.0008547137177347672
aF3.772548567468894e-05
aF3.962494398614569e-05
aF0.00012063797210514115
aF0.001222314298476323
aF6.736330939597732e-05
aF0.0024482362419305493
aF0.001231097472517134
aF0.011037041442421935
aF0.0007765435195844918
aF2.905246784252754e-15
aF2.5826225087125143e-16
aF0.001176357910644922
aF0.0032286520632953965
aF0.0010577295316090724
aF9.08681482764536e-17
aF2.752790509852747e-05
aF0.00673832459653254
aF0.0019530988208708753
aF4.5614332480064605e-05
aF0.0038987312123009857
aF0.00015471094237488894
aF0.004722280087014877
aF0.0033595774276351086
aF0.00026619938241357976
aF0.007076442661325795
aF0.0018670246619136041
aF0.000875411270789691
aF0.00754154327944962
aF0.0013663289704577322
aF0.0005192243059634566
aF0.00048248351432272836
aF0.0002910393103211843
aF0.0003299472090661106
aF0.0004169158656699117
aF4.391999281469778e-05
aF3.17078364250784e-05
aF1.601110380526711e-15
aF4.843161242529507e-16
aF0.0015630001540092539
aF0.005624665214215224
aF0.0035964158928793646
aF0.003864158166479678
aF9.99150521353353e-05
aF0.004226657124296619
aF0.005433436501551256
aF0.0007287048204800175
aF0.0012454259763818901
aF0.007245345554660935
aF0.0013529211698965536
aF0.0016177050854331188
aF0.003763246043740808
aF0.0005462677442758466
aF0.0021211907126247546
aF0.001446429616403352
aF6.041812467716103e-16
aF4.638956594687309e-15
aF0.0016277295255261066
aF0.001161621008647352
aF0.002509666079571031
aF0.00048728123465954494
aF0.00037966242125344
aF0.0010790661571768176
aF0.0023966737770110312
aF3.973620109520175e-05
aF0.0001019067838041622
aF0.000768897752904141
aF0.00021304791624092144
aF0.007292425144223062
aF0.001656006068800733
aF0.005513807586784905
aF0.0028629630740147597
aF0.0037965238032862257
aF0.0016751968931302196
aF0.0006261875464795179
aF6.400096005177149e-05
aF0.002218372860283517
aF0.0014938516889439076
aF0.00040485316145232996
aF0.0005940733052069476
aF0.003628673024471071
aF0.0034564799717819107
aF0.00018777257861883192
aF0.000640855113622665
aF0.0007072565746476998
aF0.0009795179252648117
aF0.0014718860551790624
aF0.0011426663736106382
aF0.00047074767952663563
aF0.0007000439005037413
aF0.0004047512649282931
aF0.0005010870945123335
aF0.0023759287994681304
aF0.0007524062972973853
aF0.00028454597826160256
aF3.144250365979864e-05
aF3.678129729263165e-05
aF0.0004437261893596621
aF5.63606436767249e-16
aF0.00016001418729364296
aF0.0005887760541370372
aF0.0047086599441840335
aF0.0053755612442109475
aF0.0005309713070234901
aF0.005031249194118034
aF0.001068130220390621
aF0.00037885395152663587
aF0.00018000187697867102
aF9.51255317594681e-05
aF0.002087232864973947
aF0.00028737544701013185
aF0.0007077290170368667
aF0.0012255953414931572
aF0.003633182166087371
aF0.00040760111401976884
aF0.008913583338267214
aF0.007536756983079267
aF0.0007361334341559106
aF6.360334598830846e-05
aF0.00046104541877956467
aF0.001455741267722166
aF0.0011955774899092002
aF0.0009542534575358899
aF0.0025014168628895625
aF0.0006765278637830041
aF0.0008849356818009202
aF1.98380725468953e-05
aF1.6817164601571029e-16
aF0.00021567960758723243
aF0.0003124485904222049
aF1.233554258083506e-16
aF5.771896965751535e-16
aF8.417787476560907e-15
aF3.4951530848841744e-16
aF8.38842221063309e-17
aF4.337984721473292e-05
aF1.1460449194267997e-15
aF9.918577302125095e-17
aF0.0010992248661597709
aF0.00040625037389763717
aF0.0032641129289825476
aF0.01614340877543285
aF0.0041737642370356254
aF0.0008114421300925456
aF0.00045858400321696304
aF0.00017822611204746102
aF0.002709931960912277
aF0.00155429258446169
aF0.005949645187460249
aF0.00033611115898750263
aF0.0003320916240028222
aF0.0011306594044575833
aF0.0008034527553530986
aF0.004365422572489546
aF0.0041808809889373865
aF0.003082121322409894
aF0.0006067827860991015
aF2.6420074227250978e-05
aF0.006303780703372942
aF0.0008034037931453923
aF0.0003942013318267286
aF0.00034662308137844235
aF7.330148409870167e-05
aF0.00023021204344237156
aF0.0005709790546907455
aF9.621116168030935e-05
aF1.3946902228882564e-15
aF1.2795934514453237e-15
aF3.579605689629481e-15
aF1.013718647287255e-15
aF4.951825252697738e-05
aF1.777561335145821e-05
aF8.794686291317828e-05
aF0.0009702264136155959
aF8.415969629546488e-16
aF0.0012007469414146371
aF0.0011249885998348976
aF0.00014867052704443123
aF0.0011939838585831313
aF0.0011373176654499992
aF0.0021437093147940265
aF0.0008973751975301235
aF0.0003127998571306329
aF0.0027761997894674368
aF0.0020419212519650573
aF0.003422339792285172
aF0.000549227638565647
aF0.0008961565852455903
aF0.000655015276977103
aF3.0258668137382864e-16
aF4.1718638636958125e-05
aF0.00024464105354477623
aF0.000518211893115618
aF0.003085165301439203
aF0.003213712905637446
aF0.0007450190307308995
aF0.00018735980350491685
aF0.0032663304106444785
aF0.002344057362611238
aF0.0014824272481568487
aF0.002979977861407561
aF0.0001571741774619491
aF0.0001801296255517854
aF0.005279254418231466
aF0.0009563267873495015
aF0.0006311458737467814
aF0.00010519434312424945
aF0.00037530492666752215
aF0.0002946799658829714
aF0.0009377040995131639
aF0.001077857749158487
aF0.002605093824645991
aF0.0030472610119355384
aF0.009350547088556134
aF0.0002044219146467155
aF0.0016597611629848225
aF0.00029660000651326486
aF0.0001783785381601453
aF0.004666043284660016
aF0.00866029828003367
aF0.0015918711647875284
aF0.0020622257117575192
aF0.0018347175540517516
aF9.523367881730795e-05
aF0.0002520503599427347
aF0.00018192079880551622
aF0.0002005186961804109
aF7.023856333802358e-05
aF0.0022843458912387487
aF0.0034125977514220833
aF0.00035662164248980723
aF0.0003692923801424657
aF0.0007565998502163432
aF0.0002880465998082578
aF0.0031947093184516023
aF0.0018542356164793147
aF0.0030636636929831478
aF0.0006882910457411355
aF0.0006430290474997932
aF9.977430263480296e-05
aF0.000687866735388608
aF0.0009679031031963671
aF0.003325091861720342
aF0.0023831120326437976
aF6.438041737135817e-05
aF0.000218954895341716
aF0.0022486438082736093
aF0.004713464528288395
aF0.00377314088463783
aF0.001657742235517577
aF0.00016233645052795805
aF0.0015646131390077821
aF0.0014838812307307442
aF0.00014143126893697845
aF0.0008424718851087877
aF0.004498549409302858
aF0.00012885064051803777
aF0.002420315009610706
aF0.0005772119907476747
aF0.00362413853020346
aF0.0013095241398681844
aF0.0008451289580064585
aF0.0005136178680611622
aF0.0016518912341108444
aF0.0022710038761329598
aF0.0034465319463387687
aF0.0029329384477025204
aF0.000734887230790711
aF0.0017075749422992982
aF0.0012338940627833986
aF0.0007504747104819903
aF0.003982819002503796
aF0.008128469200687072
aF0.0006248702492654336
aF8.338417893341522e-05
aF5.285313070287875e-05
aF0.0007498856026309753
aF0.0035066327675194646
aF0.0033907291543837804
aF0.0024096771165118378
aF0.00036906472267999116
aF0.0002102280279741101
aF0.00014166835602679083
aF0.0004004145920785342
aF0.0006494232007630047
aF3.2279193977685606e-16
aF7.567821073114989e-05
aF0.0024241242685562785
aF0.00039429287379339644
aF2.1850810428793714e-05
aF2.2950987208117583e-05
aF1.0890433370837974e-15
aF8.901462339397486e-16
aF0.0009420335408429389
aF0.0008939129323516784
aF3.828747208151095e-14
aF3.003008932198124e-16
aF0.0009617511994434956
aF0.004500698704372902
aF0.00016352042045601124
aF0.000747434279651604
aF0.0005692865321795702
aF0.0005523871811022957
aF0.0027078042220259075
aF0.0016572737011526215
aF1.821167239401688e-05
aF0.0014361349268094698
aF0.0007683761124600123
aF0.00020447140234468607
aF0.0001614753808473167
aF0.0001504479768036408
aF0.0008195701693932404
aF0.004077088056328217
aF0.0036601762445820788
aF0.00017374132060350535
aF0.0002834505828714384
aF0.004341938353900596
aF0.001254096373470761
aF0.0011017060593858374
aF0.0013821723644343944
aF0.0014189396430272453
aF0.0011018047189786826
aF0.003971692810318875
aF0.0027213777458386865
aF0.00020845909006607664
aF0.0001294077082491355
aF0.0012860484784169976
aF0.0027895587411379693
aF0.0006671871582459433
aF0.0042297067680423855
aF0.0001595232607545562
aF0.0005943907530629711
aF0.0005911040909096909
aF0.0013617384155534882
aF1.2819151239030651e-05
aF0.00017240700157360802
aF0.0014070024829689273
aF0.0006426504815007999
aF0.00030441184609714025
aF6.78515748934093e-15
aF0.000773718915368885
aF0.0006404765212384628
aF0.002624376484371588
aF0.0019576799205090157
aF0.0012638820407041573
aF0.0007826445964992395
aF0.0005600607321553752
aF0.0005362706652381224
aF0.0001661521116720071
aF0.002918514413042489
aF0.0015223500966362223
aF0.0024516592028610462
aF0.0003422161980244636
aF0.0007125965245016113
aF0.0015171242264251917
aF0.0009872730189346192
aF0.0004409505697266975
aF0.003399220320454893
aF0.0025517046865101895
aF0.00023572724824939028
aF0.0011803030880149232
aF8.109056335953328e-05
aF0.00030428415251374864
aF0.00010663347343319656
aF0.0018860063420452937
aF0.000884187738907606
aF0.002419200011544752
aF0.00038811504081770487
aF0.0038485002709901174
aF0.0008408126166794399
aF0.0050291355885639195
aF0.0006319445285050013
aF0.0006935058942198949
aF0.0016963375111197579
aF6.624081535757684e-05
aF0.0008431085674785769
aF0.0008589660922163276
aF9.268110428853856e-05
aF0.0033953851783952104
aF0.0004619612965938185
aF3.232373438144507e-05
aF0.00019725948230743846
aF0.0004456376405684817
aF0.0017182415254490043
aF0.0008933506955596575
aF0.0022774495032334926
aF0.0058799526238312964
aF0.0008203068956122112
aF0.0025478868449540976
aF0.0021223542929302086
aF0.003120897908328993
aF0.0020742051866036297
aF0.00041503006079640875
aF0.001804538484319008
aF0.00016137583623878105
aF0.0004970900523221452
aF0.000771260928703362
aF0.0007613110780446813
aF0.0022011448301559634
aF8.191777496794186e-05
aF0.0009275340108800384
aF0.006694293185325458
aF0.0017127661764478053
aF0.004208089648121496
aF0.0008005074867838722
aF0.001494025040160371
aF0.004967074054581573
aF0.00018617848354055702
aF0.0006687336836180138
aF0.007901697153560164
aF0.0006261176889425051
aF0.0010574447766367745
aF0.00035465988410403874
aF2.4163666758187334e-05
aF0.0008834521599917745
aF0.000918401607556893
aF0.0006185098016744268
aF0.0028495971632322256
aF0.0002584639254362011
aF0.011557474694208274
aF0.0008546073086099406
aF0.00353827986018869
aF0.0006710367683377283
aF0.0005837459738040948
aF0.002207715678346031
aF0.0014699577047623336
aF0.000831325697501822
aF1.824346043558487e-15
aF0.0008142344854588326
aF0.00016110952842894862
aF0.0008901278504724988
aF0.001139287376273816
aF0.000413839790874634
aF0.001051501927444261
aF7.8970374978388e-05
aF0.0014669455335368342
aF0.002343962782015556
aF0.0008852393009037514
aF0.00022889191172188855
aF0.001114596172658557
aF0.00010736284371511664
aF0.000418551220387652
aF0.007184307882205514
aF0.006244440280403285
aF0.0017353273782554164
aF0.00031545368469569813
aF0.0012329937122984884
aF0.0002455376162477087
aF0.0014587012803660784
aF0.0015320651305791742
aF0.0028833599282586156
aF0.0026746033481446856
aF0.00022840430633884595
aF0.0015003354574473517
aF0.00012752892453619631
aF0.0008067142778759016
aF0.002603633134406337
aF0.00035574580384819285
aF0.00026371663937286096
aF0.0010747581170284601
aF0.00021329730725108117
aF0.0017206830319663978
aF0.003541826468238055
aF0.0012811843931665094
aF0.0005951670954480739
aF0.00022456746653777622
aF0.001479919087101372
aF0.0011671980104546796
aF0.00012999177352046134
aF0.0003633494200621224
aF0.0009797182743907411
aF0.00023934520504272972
aF0.0004902766142656145
aF0.0012337542840878972
aF0.0023450883675432232
aF0.00396123504327424
aF0.0023352668543295194
aF0.0002305239890997894
aF0.0027583904039529057
aF0.0006463062253516806
aF0.0019047604149083225
aF0.0016154579848205622
aF0.00014489825019491418
aF0.0010125233517149664
aF0.0006495197787741126
aF0.00012832226391320414
aF0.0003741270995922673
aF4.47099562044285e-05
aF0.0029152968585093226
aF0.0016776892243408861
aF0.007265126918247421
aF0.0015975030898232126
aF0.0009640335447986606
aF0.00039754577825927735
aF0.0016425438932856941
aF0.0010844432131404541
aF0.000781504415424355
aF0.007743361182944247
aF0.0009844846249546459
aF0.0006459103927815356
aF0.0021375912866376406
aF0.0004576356073053264
aF0.00028837341325685004
aF0.0010778625257008064
aF0.0050019615037593225
aF0.0012344093723940387
aF0.004797479598431089
aF0.0015152544955245903
aF0.0004808486591085112
aF0.0013248213498888383
aF0.002778784797886158
aF0.0008038741098204272
aF0.0003834229272552245
aF0.0020053476843625187
aF0.002725473636473286
aF0.0018892996398303255
aF0.0007999267304066266
aF0.00253314405368322
aF0.0005407552204460715
aF7.424923457788986e-06
aF0.00018457378665543672
aF0.0019747962419983424
aF0.0009939546637074612
aF0.0013661058353241246
aF0.003717975525189144
aF0.00011460380003221566
aF0.002363935132337992
aF0.0013792707410821754
aF0.0017251488012054049
aF0.003279975244599677
aF6.061317481803612e-05
aF0.00016925200868763874
aF0.0003784890539484109
aF9.257898300717653e-16
aF0.0011079478480725507
aF0.0023584882845274625
aF0.0003103658097269234
aF6.770711572091765e-05
aF0.002923100639685772
aF0.000729583897785591
aF0.002123663466491022
aF0.003001069108059321
aF0.00041112107944814866
aF7.083457123785572e-05
aF0.0013843600918952714
aF0.00033798675192498113
aF0.0005118347246751706
aF0.0013025541432657205
aF0.0032758524862787925
aF0.0011671540283567435
aF0.002036317169403189
aF0.0007959592489350224
aF0.0011006007076363338
aF0.001071860102192158
aF0.00020307270369292362
aF0.00037662675846579405
aF0.0013549340244370463
aF0.0015923559029286923
aF0.0008999564817196874
aF0.002973037003992008
aF0.0006387020138119018
aF0.0013172774430228649
aF0.0028434353479408338
aF0.00284671313607394
aF0.0008004201649541969
aF0.0006597928959167911
aF0.0009289584805595314
aF0.0007161050659415082
aF0.0018088337891860526
aF0.0023071199986241116
aF0.00037013737755688103
aF0.001343152021961208
aF0.0004930139528006453
aF4.696810381089609e-05
aF0.0002535175633353956
aF0.002004885395207257
aF0.00010770951221474717
aF0.0026371464626975044
aF0.0017510310342016967
aF0.000861341161285705
aF1.5001339997792123e-15
aF0.003518258258892135
aF0.0016945951541549379
aF0.0008396166276051721
aF0.0013784204629163405
aF0.0005172596319085501
aF8.879479765179043e-05
aF0.0007275360907666922
aF0.002745131131489036
aF0.001605376770564691
aF0.0017874076502944676
aF0.000812108601105119
aF0.0001143649540018213
aF3.7289494571739894e-05
aF9.326556889911076e-05
aF4.2113244073856505e-05
aF0.0007224004906307902
aF0.0004480807801602134
aF0.001472645127724326
aF0.0006164056590400017
aF7.400648925798419e-05
aF0.00013653452890698007
aF0.0032861145452726848
aF1.6701536979895633e-05
aF0.0012919147472010342
aF0.00113773832010628
aF0.0026147063296329126
aF5.23997580287468e-16
aF6.787692829398327e-05
aF0.0015824185372079302
aF0.0005189828805045238
aF0.0003510014298451859
aF0.0002964222188920456
aF0.0006506340051879883
aF0.0010721325307785487
aF9.819351586201567e-05
aF0.00031720700207890087
aF0.000917058862062272
aF0.00226743203004528
aF0.0013281490293028469
aF0.0005718285482034855
aF0.0038744440521918232
aF0.00034655366763524406
aF0.0002720131061874201
aF0.0002575906663285615
aF6.031437706345996e-06
aF0.0006048943173657176
aF0.00010221569202308448
aF4.055758720205181e-16
aF1.3270432408648438e-15
aF9.741189421393276e-16
aF1.3562888831704368e-16
aF2.2981326404964894e-15
aF0.000640278366469462
aF0.0001396760145346033
aF0.0014015820116929283
aF2.272281261046558e-15
aF7.922630635232316e-06
aF1.463578267349012e-15
aF0.0013051189991584906
aF0.0010920172680880056
aF9.228740565349062e-05
aF0.00120688632880694
aF0.0007584565877289288
aF0.00012861089361903744
aF0.002877620565452944
aF0.002364984348946952
aF0.0005575920583827957
aF0.0008705727616376613
aF0.0014481999097817322
aF0.0020562819783754927
aF0.0009910984075501927
aF0.0006321396161564327
aF0.0006230128907762314
aF0.0014119957336906125
aF0.0029605536608379003
aF0.0039885793726017514
aF0.00022064248495198946
aF0.001761883543102468
aF0.0007387723452036158
aF0.0002748607612054775
aF0.0003328879849299878
aF0.0002470524118460163
aF0.002310255520298046
aF0.0032496147355323525
aF0.0005962799182570824
aF0.0012531996182589193
aF0.000558127973640895
aF6.642739766281887e-16
aF0.001779403363463157
aF0.0009484731161006674
aF0.0008148706613618117
aF0.001240860745282268
aF0.002426741506619898
aF0.00043650279513397425
aF0.0008677305142245382
aF0.0027269405392756313
aF0.0014440420470260035
aF0.000815373314070724
aF0.0005962182699358143
aF0.0002809990035907403
aF0.0008135585284071247
aF5.2821449570671267e-05
aF0.00015153273794970158
aF0.0007966444770313193
aF0.002562592486291638
aF0.0012688973720935606
aF0.0005584722547127535
aF0.0005321887746621827
aF0.0006784375514755036
aF7.109435311228537e-17
aF9.673622797282049e-06
aF3.1154123157420572e-15
aF0.001217973623871767
aF0.00010279032745631511
aF0.00013319029269012988
aF0.0005654473311539856
aF0.0001017340607843056
aF0.0008364146226681725
aF0.0012062352407841486
aF0.0018785143194427326
aF2.866781165177498e-16
aF1.982395735062259e-15
aF1.3852248206181977e-16
aF0.0008317514826780771
aF1.268378517426905e-16
aF1.1873477293012977e-05
aF0.0004936290916129887
aF0.00021877624031003796
aF1.1478352729285155e-05
aF1.135681376773909e-15
aF2.6563981079974023e-16
aF6.05992944662264e-16
aF4.467410146469564e-16
aF2.0661584784490392e-16
aF2.1838421728063944e-16
aF7.040049680807121e-16
aF1.5031835067270473e-16
aF2.3647234202679886e-05
aF7.121206950380696e-15
aF0.0021009097593499737
aF0.005820404622966432
aF0.0008066371061530175
aF0.0006845099766974138
aF0.0012591659891904496
aF0.00028668259300751334
aF0.0011558462230092461
aF0.0002852364844144585
aF0.00020002528810251344
aF0.00035439452000976697
aF0.0004019998343579349
aF0.00015942763958375688
aF0.0015833454468977036
aF0.0005548332363327569
aF0.0032170245737582217
aF0.000698773320975514
aF0.0005953630100852952
aF0.0029489009135531723
aF0.0003668440725659213
aF0.0017280278519411
aF0.00022219873396684835
aF0.0025188100828275805
aF0.00019086355113767813
aF0.0011835751722341463
aF6.900427269171131e-05
aF0.00021554772752492403
aF3.27408223191115e-13
aF0.0001456998386740874
aF0.0007751106819513883
aF0.00046230974511059193
aF1.873456911505727e-15
aF0.001038725288503634
aF0.001088925137951093
aF0.0004158417727453948
aF0.0011218994181541333
aF0.0020031004578013665
aF0.00021967787553044463
aF3.2002803349003805e-05
aF0.0007606222030743352
aF0.0010035362690029028
aF0.0025841398557511805
aF0.0013644927297377816
aF0.002337345473344084
aF0.002526982859606786
aF0.0014692752495827643
aF0.0027227781194095538
aF0.001109268028704906
aF1.7316308260907033e-05
aF0.000441887764430779
aF0.00021893132580501793
aF0.0009719276458897758
aF0.0006645355243124212
aF0.0027845169945507
aF0.0004940066852727471
aF0.0017503710721133415
aF0.001953176973253353
aF0.0007918441705378862
aF0.00045426157384355754
aF0.00048596652072097844
aF0.0011935300826526368
aF0.00034790987886315557
aF6.730115395061315e-16
aF0.006697825191358322
aF0.0006912864080292325
aF0.0043992511704007455
aF0.0008314821216721933
aF0.00022175969245144157
aF0.00037738053323523865
aF0.0016784510346164521
aF1.5210600428833103e-05
aF0.0017273887833929094
aF1.8632507594534244e-06
aF0.0006510621088295589
aF6.826045132494668e-05
aF0.0005524885786909864
aF0.0002920382896169344
aF0.0018764177212657566
aF0.0008749228895603387
aF0.0020586271800925146
aF0.0017436421370682794
aF0.007286964336565951
aF0.0018264387347531944
aF0.0026461946593538616
aF0.00037132081116345
aF0.00023104016000010004
aF0.0001614175471294716
aF0.0014233644696581096
aF0.0011184844065612362
aF0.0008387374141775009
aF0.00495325345096935
aF0.001045551931051421
aF0.002543434022939754
aF0.0037500233169261423
aF0.0010371272357367913
aF0.0015548091090685306
aF0.0026885791741128404
aF0.0028102274929332803
aF0.005484998823176818
aF0.0013714486778866157
aF0.0018995149385977678
aF0.0014809164587403318
aF0.0044705527515401
aF9.223415332812693e-05
aF0.0004059972409555735
aF0.0009733055074274229
aF0.002585098523836917
aF0.00024975723410082805
aF0.0011677957766460312
aF0.0004691711991596761
aF0.0009812928754927472
aF0.0006156156776194429
aF0.0022421174824610235
aF0.00039370888057276655
aF0.0004986172280652181
aF0.001226593678290692
aF0.0008914521684857114
aF0.0042096068183692815
aF0.0009707684340620718
aF0.0012657624242620362
aF0.0007502485531804975
aF0.0011577874202124794
aF0.0007460791385789665
aF0.0006983425485931872
aF0.0001610129564054754
aF1.3457703228117706e-05
aF0.0001491979418533613
aF0.0005254842953663333
aF0.0004458503823828351
aF0.0005421309256496208
aF0.0005811068929618213
aF0.0003165022309432761
aF0.004023696745922621
aF0.0007932078902793402
aF0.0009713672522016989
aF0.000440148499478776
aF9.82657432950548e-15
aF8.744717990530584e-06
aF1.1162030469365436e-06
aF0.005465887402663866
aF0.005507724713798989
aF0.0016379353359112613
aF0.0012943438849199963
aF0.0003225645437289903
aF0.0007538264592364024
aF0.0004867371716117851
aF0.00038642309956307035
aF2.2334827098397828e-05
aF0.0014547114006708138
aF0.002415427873562761
aF0.0003003825819443268
aF0.001600914052490136
aF0.0018322864589317407
aF0.0010063481932051526
aF0.000936379984881389
aF0.0014423301784986632
aF0.0038893960207048313
aF0.006087684137710685
aF0.003826770040056377
aF0.0007124899844622591
aF0.001641217441662909
aF3.5551029346065866e-05
aF0.0012205353894167784
aF0.0040258577205706135
aF0.001533551595839423
aF0.0002896558644796407
aF0.0009530302160117925
aF0.0025879844977479962
aF0.0007159263042741353
aF0.002897775026927565
aF6.467470928637326e-05
aF5.785136831642487e-05
aF0.001956082878805835
aF0.0002070012819300075
aF0.0013214887198373158
aF0.0008823458291983264
aF0.004204284928265618
aF0.0027498528847913315
aF0.0005683825219200282
aF0.00047340960394132316
aF0.0006632250068033085
aF0.0018661687433993216
aF0.0007597690608218871
aF0.0036023563419481206
aF0.002722402991906247
aF1.2683528314135424e-15
aF0.004691383958359135
aF0.000950640511399588
aF0.0031777353276098283
aF3.227431856634795e-05
aF0.0009609596682057922
aF0.0009021088657924402
aF0.0007901105436414418
aF0.005062434181290261
aF0.0036381774586463737
aF0.001026088307412631
aF0.0017681383380165117
aF0.006206909271978024
aF0.000250276237844866
aF0.0018158143070611088
aF0.0024853994205720083
aF0.002732795449247247
aF0.0008276469321162338
aF0.0006809164437466705
aF0.0027979182619170028
aF0.001980451430612967
aF0.0009426558836373839
aF0.00015974527456002154
aF0.0005598562347191938
aF7.571663053827835e-06
aF3.059447639689748e-05
aF0.0002691817685592025
aF3.7532110215891703e-05
aF0.0015815953927031938
aF9.957966425476333e-05
aF0.002190232639234726
aF0.0016018072321857162
aF0.00025595586580567475
aF0.0004895133553899019
aF0.0015860360048503776
aF0.0006052126978975106
aF0.00013226765360645573
aF0.0010995182030362977
aF0.00013134414471918684
aF3.21690767425302e-06
aF0.000952433410101683
aF0.0031957183204896953
aF7.43628113903125e-05
aF0.001244705930731202
aF0.002843422045193136
aF0.0004390839576692046
aF0.005326388510358009
aF0.0002888024505834818
aF2.5037907267930174e-05
aF0.0003985059121186154
aF0.0013849017158002635
aF0.00203211560784882
aF0.0004709464414976192
aF0.0001716893924346225
aF0.00018606688472702534
aF0.0008742088023915885
aF0.0027738125024306453
aF0.0028891207823943774
aF8.11149406888241e-06
aF5.093931059376425e-05
aF0.0005024008309604975
aF0.00032925866351174655
aF3.0172545693668643e-05
aF0.003746822383379904
aF0.003177008060892491
aF0.00019677977160900337
aF0.0054338680607458134
aF1.2076816146208853e-16
aF2.4030577228334313e-16
aF0.004100037401308636
aF5.517078409585362e-05
aF3.717143668204224e-05
aF0.0018669078254194616
aF0.00035527139872129236
aF0.003279449409675651
aF0.0011473910137495432
aF0.00041140253521531754
aF2.695224000318485e-05
aF1.3395990460522477e-16
aF1.398588207705966e-15
aF0.0012609012898399325
aF0.0018445621377612836
aF0.0021112951021545917
aF2.6187049169318467e-05
aF0.0013941800732210933
aF0.0008957834467196379
aF4.5547906421792404e-05
aF0.0003976585094542756
aF3.823327101463282e-05
aF0.00020539704937567947
aF0.0017473975382094526
aF0.00145829489710539
aF0.00029187460720117624
aF0.002849883964984134
aF0.0010439737471757162
aF0.0014401439233140334
aF0.0009285024702669799
aF8.799961149356433e-05
aF0.0032647896209679924
aF0.0010403989022603128
aF0.0007104608884436172
aF3.232144318267913e-05
aF0.002119535253793586
aF0.0003736973158499277
aF0.0006767329100484045
aF3.0273550189278207e-05
aF0.00011453510441141457
aF0.0007613223599717113
aF0.0002638552837482822
aF0.0013062439471049011
aF0.0028319702549208558
aF0.0019017846968198166
aF0.011562515686852218
aF0.00045743944662150087
aF0.00016756176376529227
aF0.00103068125657264
aF0.0002305336411869998
aF0.0016216922410419539
aF0.005152458201979122
aF0.0005157267233204647
aF0.0012882295343216196
aF0.00013577597685448509
aF0.0012404446886198123
aF0.0022944808433891955
aF0.003615609714081453
aF0.0006442930925456043
aF5.4058793315545345e-05
aF0.0021540350165682657
aF8.990278609679785e-05
aF0.004239208965851404
aF3.056272287861028e-05
aF0.000751135302878797
aF0.00012369743855223617
aF0.0011841005776336185
aF0.00044837118855417356
aF0.000464605133371359
aF0.0016500983270647605
aF0.00044130759164193764
aF0.000895347686592648
aF0.003536674479496632
aF0.0009478529086084501
aF0.0047056550869699785
aF0.00473920696157444
aF0.008739325521709444
aF0.0023264813890766975
aF0.005540053239349668
aF0.00036658259412479966
aF0.002236146792223985
aF0.0005066282138129997
aF0.0005369894530459535
aF0.003953811300410811
aF0.0008524283677157512
aF0.0015242088158962952
aF0.001999224320933601
aF0.0013494504595436404
aF0.0018557155595202207
aF0.006289864830765418
aF0.0019929015671838976
aF0.000645849230654025
aF0.0012914041829801004
aF0.004187352473983047
aF0.0003750259638784401
aF0.0022231836661519215
aF5.783485089259314e-05
aF1.853137378550427e-05
aF0.0002465218523790811
aF0.0008187289519815081
aF0.00674512884638877
aF0.001851051544563203
aF0.0013323578925264323
aF0.00011850642950923832
aF0.0014624459937492404
aF0.001120832908719211
aF0.0038943955350009885
aF4.3855672333774625e-05
aF0.005098187822696219
aF0.008503239343439361
aF0.0011665981844571482
aF0.0008190090861828975
aF0.0032049165723678262
aF9.333265873796358e-05
aF0.001875408540001011
aF3.80555610905907e-05
aF0.00030710211419650817
aF0.0008068287078510605
aF0.0011514028142148806
aF0.0014680649632042204
aF0.00030835005672171883
aF0.0005213957614390725
aF0.0005551463138374867
aF0.0007790224250731176
aF0.0009981620190143954
aF0.0008797855959428508
aF0.0013025861519265023
aF0.012053549905018729
aF0.0007187831244340628
aF5.643223919694206e-05
aF0.00036533564650764153
aF3.276583780360909e-05
aF0.0010452573040816992
aF0.002108903424673276
aF0.004443683353255212
aF0.002793337160584906
aF0.0033586804456160638
aF0.0012452317212116116
aF2.0430965150336963e-05
aF0.0016302950347611188
aF0.0014172784830075206
aF0.0011328934584972177
aF0.00012113347421357796
aF9.234137261148594e-05
aF0.012035204092599382
aF0.009110465158711369
aF0.004378017554751972
aF0.0007121464661284389
aF5.111726941253462e-05
aF3.931055013625468e-05
aF0.0004036001709217665
aF1.457649181218838e-05
aF0.0028806662808735237
aF0.009096598796795814
aF0.0009460949049115418
aF0.015698399115201787
aF1.6060749721689243e-05
aF9.325959689522107e-05
aF0.00043942721128391885
aF0.0006131227673652013
aF3.931045290700416e-05
aF0.002483113181977337
aF0.0018825297005979165
aF0.001810811331504519
aF0.0008798139219128196
aF0.0003202578622388656
aF0.00019214227023216438
aF0.00026913055688123516
aF0.0005601633885678377
aF7.760426369006666e-05
aF0.0003273258567598562
aF0.0035566872047250783
aF0.00010777097106901927
aF0.003035749454458631
aF0.0011394310289738667
aF0.0005610460177363036
aF0.002584333795994964
aF0.000880946662009356
aF0.000342036194668052
aF4.712067423082649e-05
aF0.0003547213496727779
aF8.168280396059799e-05
aF0.00012383222210352127
aF0.0017322110068445978
aF0.0012369636969993556
aF0.0004343276360574022
aF0.0014549592350975274
aF0.0015146666148949817
aF0.00015696730007101322
aF0.00023534007935917283
aF0.005522659035149716
aF0.000462884600199042
aF0.003285268988711301
aF0.0012021910080698736
aF9.93669323976831e-05
aF0.0010314477206638144
aF0.00042415572007485717
aF1.2974946401750205e-05
aF4.120158942147026e-05
aF0.0019136551680959508
aF6.786960752807648e-05
aF0.0008897066208049265
aF0.00030035265676115836
aF0.0007682365973937053
aF0.00016657985247764114
aF0.0006926512155804739
aF0.002634504284405011
aF0.0016551039342061731
aF0.0011264079985797868
aF0.0002577241758910219
aF0.00275026266049242
aF0.001386586073548539
aF0.002973919705408863
aF0.0003147112811709517
aF0.0011294323783193566
aF0.0005318739511736209
aF0.0013343118589130428
aF0.0032652359174983898
aF3.2188371065246295e-06
aF0.002138020044086037
aF0.0020566860310454143
aF0.003963706699174922
aF0.0024130077725288425
aF0.0005380132797295975
aF0.0018948135184342636
aF0.0002661578105359779
aF0.001963365042772577
aF0.0019631436569456768
aF0.003948204551947713
aF6.885890005747397e-05
aF0.0016238514457720759
aF0.0007264288223756571
aF0.0003396081428046142
aF0.0002786026557065182
aF0.0018626077472511666
aF0.000878331370918695
aF0.0017109672840279122
aF0.0016298257319039497
aF0.0033829390609039695
aF0.01186536077033407
aF0.0009349374045771565
aF0.0025783240471264446
aF0.0006465543308211754
aF0.0012978113946131825
aF0.0012932047365086827
aF0.002623196733973512
aF0.004173021367962255
aF0.0007478941532213198
aF0.002211423624212851
aF0.0023063045159516754
aF0.0006166966899432036
aF0.001229843160932313
aF0.0020597459357296543
aF0.0006831031730057716
aF1.6211952596433258e-05
aF0.003019210785414623
aF0.003647203074434346
aF0.0023026848537814203
aF0.00038599172684829214
aF0.0015956126309116226
aF1.5514706793230745e-05
aF0.003545444380957473
aF0.011637647851174285
aF6.195825758673118e-05
aF0.0010866909448906264
aF0.0005259669095643969
aF0.004778036085368944
aF0.004197015536287483
aF0.0013362970268146561
aF0.0019249756674872686
aF0.008796112855779999
aF0.005168484923776241
aF0.000525149300596064
aF0.0011633892898932606
aF0.0032371044481274334
aF0.0021708682777668406
aF0.0014786624837635153
aF0.00030185216366160025
aF0.00045108276469079734
aF0.005759717026048048
aF0.0008692620322013548
aF0.0033461401338332943
aF0.00042998992715894373
aF0.001850737423965783
aF0.000965716758666676
aF0.0004451915811451562
aF0.0005415597473700437
aF0.004940004917936107
aF0.0012715799183148741
aF0.010445703673332899
aF0.00039681797090696604
aF0.00044321768491331306
aF0.0016399987023466116
aF0.0007036928523416289
aF0.0013107165736093
aF0.0001711345100199402
aF0.000205841289270758
aF0.0003075316043445283
aF0.00036412441072492327
aF4.651166697816581e-05
aF2.1132574204878483e-05
aF0.0003842532237191545
aF0.002481248765614196
aF0.0019730520148399
aF0.0006172022802156134
aF0.00027374255302880374
aF0.0001495628241847414
aF0.0005341517582702135
aF0.000495830212790835
aF0.0011041121022271508
aF0.003969846108216565
aF0.0042721460576108355
aF4.7282773687279315e-05
aF0.00027155044621851896
aF0.0005282442366880077
aF0.0011716618005491995
aF0.0010586118752903685
aF0.0005777422897771034
aF0.0006751880756427829
aF0.000422910096659961
aF2.457179808509551e-05
aF7.312608075957956e-05
aF0.0006654524309612295
aF0.0001407084867879329
aF0.00011618356513110304
aF0.0009323663323179009
aF0.0015492049567429466
aF1.423212165822648e-05
aF0.0024679715349928124
aF0.0016809248447344793
aF0.00029097319769064243
aF3.467042702016226e-05
aF0.0012509813992686429
aF0.0072969580116393476
aF0.0013612612263579175
aF0.0002843328425077446
aF0.00032337308424328646
aF0.0022656264846518813
aF0.002299264045392323
aF0.0012402772823178405
aF0.001496256316918866
aF0.0051679188511631795
aF0.00034657241220198236
aF0.0006328847254996758
aF4.537280703254296e-05
aF0.002055005824915489
aF0.007895202668432803
aF0.0005299425605218014
aF0.0008911164609809303
aF0.00225732160849454
aF5.58030625766041e-05
aF0.0022797679666749717
aF0.00024444792990247665
aF0.00028122554223411646
aF0.0006601129979567616
aF0.003540177361532516
aF0.0028016420353248984
aF0.0015428244457100719
aF0.001452769862544059
aF0.0018951856815752868
aF0.000655747235123259
aF0.0007147158404086528
aF0.0006063862874274627
aF0.0016153971366731053
aF0.003594445065714709
aF0.0015994921045525792
aF0.0026487369496437157
aF0.0011957575576049307
aF0.0011513129898296027
aF0.0004249255138039437
aF0.000274696004619335
aF0.006837386093061722
aF0.0015501605832709529
aF0.0011709395068964655
aF7.312733905908855e-05
aF0.00045013067846244397
aF3.6346293308214307e-06
aF0.0003699002727247592
aF2.458653570521712e-05
aF0.0006390033390654485
aF0.002002512615290811
aF9.91069049136686e-05
aF0.0005585706495149346
aF0.004755610413474646
aF0.0009637694948468276
aF0.0009572654599961874
aF0.00022507383457593817
aF0.0005906904518979471
aF0.00032090988781149834
aF0.0014838078432097854
aF0.0025976191240120045
aF6.633936739027818e-05
aF0.0019189239055526115
aF0.0001243262967278203
aF0.00015235690076298046
aF0.0004075655361163869
aF6.304919769871346e-05
aF0.0004703599828613078
aF0.0006976915070940885
aF0.002089809698585961
aF0.00033577806927819436
aF0.00032146008379130064
aF2.6747952434881137e-06
aF0.0008667174404568158
aF0.0029936776258627142
aF0.003061490956280965
aF0.001286649025482925
aF0.0016350926864915892
aF0.005933347141137894
aF0.0032052322545673096
aF0.0005376537220438602
aF0.004632390486451825
aF0.00019485915969718652
aF0.0012758247908920756
aF0.0008581838307117117
aF0.0014405492745310565
aF0.0020020015584230853
aF0.0009115565388720532
aF0.00010435355243867705
aF0.0011328181283009739
aF0.0056522389153396075
aF0.0005946727299423721
aF0.0014078195319846831
aF0.0005845316957424884
aF0.0007714838929696008
aF0.003740804179349799
aF0.004484616800004896
aF0.005244159949573313
aF0.0018600644916804314
aF0.002096901784278705
aF0.0009298819356406755
aF0.0008173930364596398
aF0.0019564532554260184
aF6.791031421949236e-05
aF0.0024303519739245316
aF0.004935096814486236
aF0.0013671196847591053
aF0.00023647555972396492
aF0.00017011363295058022
aF0.002895581963668295
aF0.00752200252375948
aF0.00026482411665800713
aF0.0011944817497291942
aF0.00048297951242934643
aF0.0018667560646073726
aF0.0011953883270099468
aF0.000731469011742177
aF6.29520777030922e-05
aF9.338863759884961e-05
aF7.160329602909896e-05
aF0.0004659731094540202
aF0.0006903325038152854
aF9.735482033075096e-06
aF0.00352300786359881
aF0.001878560602031658
aF0.0065064384094465685
aF4.1436058221807686e-05
aF8.163384179093363e-05
aF0.002173369824576964
aF0.0015795461583443136
aF0.0011490980841128828
aF0.001425657527776313
aF0.00012362329203567305
aF0.0008121189815688188
aF0.004984170438004228
aF0.002755946783657812
aF0.0001912477645846518
aF0.0006277882365217749
aF0.005178762693433572
aF0.004917777825099194
aF0.0008028878214805754
aF0.0001890520966039743
aF0.0043429223131987394
aF0.00011134003513098247
aF0.009175776249881147
aF0.001802090882358557
aF0.0028670723649234404
aF0.0002528555267634736
aF0.00262369170751168
aF5.7415272792100374e-06
aF0.0015306626313515244
aF0.0015178831535560288
aF0.0009309812332881293
aF0.00035992319629551484
aF0.0030053462064067353
aF0.004601422271683202
aF0.0009499163302757598
aF0.005330719031801924
aF0.005959456339369587
aF0.00037897756985519966
aF0.0019978143198014285
aF0.0013742068157515405
aF0.000130569563267077
aF0.0004379472148281669
aF0.0006165315808068794
aF0.005828850294187553
aF0.0007500477639701278
aF0.0012685255187211376
aF0.0009621875522261045
aF0.0012988533046532737
aF0.0009941415760224088
aF0.00212165522572093
aF0.0035336268250952727
aF0.006321553883325363
aF4.816752835315764e-05
aF0.007973742069685435
aF0.003282521973453309
aF0.00026958225290423475
aF0.00011390761527475244
aF7.428041484409174e-05
aF0.003337640904543728
aF0.00039097083051934615
aF0.0017730608965622451
aF0.00019849944538834994
aF0.0013164085332193717
aF0.002384246249269242
aF0.00012267728481408103
aF0.0010619552189144676
aF0.000638704674599988
aF0.0006014210561221138
aF0.0009021605211295083
aF0.00018150520932918307
aF0.0007086431754389758
aF0.0010058986656481634
aF0.00234583828917284
aF0.0010775583406655242
aF0.00015910544860766535
aF0.0006601423078688285
aF0.0017210434074973946
aF0.0034779046518777505
aF0.003458399344058289
aF0.0004958865260315023
aF0.00033884614973218077
aF0.0006162752142571346
aF0.0016192830974673521
aF1.7618649061029598e-06
aF0.00012925249270700966
aF0.0011648651167132419
aF0.0027212733549183687
aF0.0002312393259769642
aF0.0013661987617097965
aF0.002401001695073333
aF0.0013592389722905604
aF0.0005169975678758164
aF0.000787073129102125
aF0.000635374330496267
aF0.0003117184890294098
aF0.00013595788690820766
aF0.0011481539925026533
aF0.001818136631369578
aF0.00037644420254130125
aF0.00014154872341539074
aF5.737798380330671e-16
aF0.00016887948547388782
aF0.00251016562726559
aF2.776249337569875e-05
aF0.0008536617355811284
aF0.0034165783356968895
aF0.00028245710282610636
aF0.0027188639475625694
aF4.639914518032979e-05
aF9.959714058000359e-05
aF0.0006062933501301593
aF0.0010281466968036562
aF0.00012824534519751885
aF0.0009818547996430366
aF0.0005240850300801225
aF0.0004702613155597266
aF0.00019666181822915925
aF0.005685374222231902
aF0.002732761739760972
aF0.00010545208417327503
aF0.0008259485550372623
aF0.0003752461961481175
aF7.668260674518732e-05
aF0.0007651677307133687
aF5.5836532023582265e-05
aF1.3318890215211444e-05
aF0.0007867784248854928
aF2.8219226655856297e-05
aF0.00010950230867846087
aF0.0007838356357605867
aF0.0010015803553895801
aF0.0002906808828218564
aF0.0011591081874716888
aF0.0015939778177398857
aF0.00041964840195348016
aF8.381369186950355e-16
aF8.785722453405655e-18
aF4.496699842716837e-16
aF5.212005652598475e-16
aF2.6448212924072923e-15
aF3.4631694220859136e-16
aF1.9608369142928772e-16
aF4.611537048654036e-16
aF2.2817888341930976e-05
aF2.5300441062743486e-05
aF6.920789758431745e-15
aF2.0366462255049683e-17
aF1.5649966356949978e-14
aF2.8664521207204405e-05
aF2.854245708573462e-15
aF1.1817721477897528e-15
aF6.835760493988481e-16
aF2.135462719917794e-16
aF6.130834904877487e-16
aF3.7654932310052967e-17
aF1.3261112457659995e-15
aF1.7858347989356376e-16
aF5.877263997664716e-16
aF1.8691618895541609e-16
aF1.28721169609957e-15
aF1.750940555449246e-16
aF1.4462588147263775e-15
aF1.201818011722561e-15
aF8.782526189454772e-07
aF1.3335666758505324e-15
aF2.0122901226939188e-05
aF0.0005552134679550403
aF7.811730974029386e-05
aF1.4396407801830115e-16
aF1.0761771704879284e-12
aF4.991990687156551e-05
aF7.268782124534773e-05
aF4.1411034248122336e-16
aF5.493982006906917e-05
aF0.0019872083673138424
aF0.0015019967342534725
aF2.971220625239664e-16
aF2.0122135690566945e-05
aF0.010331962062679374
aF0.010331962062679374
aF0.0008654336564558997
aF0.0008654336564558997
aF0.00808707141184328
aF0.00808707141184328
aF0.008182244578871792
aF0.008182244578871792
aF0.010695793635963692
aF0.010695793635963692
aF0.011010694005289633
aF0.011010694005289633
aF0.005349484689844555
aF0.005349484689844555
aF0.0017154594989051244
aF0.0017154594989051244
aF0.017437994128690827
aF0.0019598716926897486
aF0.0019598716926897486
aF0.014750510810903093
aF0.014750510810903093
aF0.0031326072954199658
aF0.0031326072954199658
aF0.004858421356681896
aF0.004858421356681896
aF0.011458556530597293
aF0.011458556530597293
aF0.0023199342173063834
aF0.0023199342173063834
aF0.003080672986918948
aF0.003080672986918948
aF0.015091027495484946
aF0.015091027495484946
aF0.01346687202602453
aF0.007943791444286532
aF0.007943791444286532
aF0.022004722650351503
aF0.022004722650351503
aF0.010611268373636943
aF0.010611268373636943
aF0.0013104589834096827
aF0.0013104589834096827
aF0.0101152770861351
aF0.0101152770861351
aF0.0076160539655170095
aF0.0076160539655170095
aF0.005563153705102347
aF0.005563153705102347
aF0.0035425953405643223
aF0.0035425953405643223
aF0.009218611513328983
aF0.009218611513328983
aF0.001687947560098345
aF0.001687947560098345
aF0.010378348863715883
aF0.010378348863715883
aF0.003355406637722475
aF0.003355406637722475
aF0.006434529854815937
aF0.006434529854815937
aF0.0027178492165881194
aF0.0027178492165881194
aF0.010560675203759473
aF0.010560675203759473
aF0.0016237406672312798
aF0.0016237406672312798
aF0.0013049379367920581
aF0.0013049379367920581
aF0.007717219247974742
aF0.007717219247974742
aF0.006146401850596372
aF0.006146401850596372
aF0.0024188726935987425
aF0.0024188726935987425
aF0.011990151126038198
aF0.011990151126038198
aF0.007481038387356621
aF0.007481038387356621
aF0.015538105313722291
aF0.015538105313722291
aF0.00929511875795479
aF0.00929511875795479
aF0.007616958948979956
aF0.007616958948979956
aF0.0020451508810967016
aF0.0020451508810967016
aF0.004629955629608467
aF0.004629955629608467
aF0.012605514234157454
aF0.012605514234157454
aF0.014867344325252396
aF0.014867344325252396
aF0.014684395163731186
aF0.014684395163731186
aF0.010688351151442808
aF0.010688351151442808
aF0.0013085905630320072
aF0.0013085905630320072
aF0.028900051320847425
aF0.028900051320847425
aF0.012362149251089463
aF0.012362149251089463
aF0.009931485937538426
aF0.009931485937538426
aF0.0021618109986107385
aF0.0021618109986107385
aF0.008191854976311093
aF0.008191854976311093
aF0.0013777468872928915
aF0.0013777468872928915
aF0.0001226713112425549
aF0.0001226713112425549
aF0.021414106645287975
aF0.021414106645287975
aF0.012751803025090101
aF0.012751803025090101
aF0.01869328686166079
aF0.01869328686166079
aF0.005775922325445005
aF0.005775922325445005
aF0.0024876889092472804
aF0.0024876889092472804
aF0.002058291139518581
aF0.002058291139518581
aF0.0029243358773294605
aF0.0029243358773294605
aF0.006861488338731164
aF0.006861488338731164
aF0.009230179461285567
aF0.009230179461285567
aF0.0021387789348997033
aF0.0021387789348997033
aF0.008262321768300355
aF0.008262321768300355
aF0.008669802547388902
aF0.008669802547388902
aF0.0006656997324783143
aF0.0006656997324783143
aF0.006661576642694224
aF0.006661576642694224
aF0.0006335720562750248
aF0.0006335720562750248
aF0.002502177275105053
aF0.002502177275105053
aF0.0015063089069859365
aF0.0015063089069859365
aF0.0013055932799298602
aF0.0013055932799298602
aF0.013263546737515532
aF0.013263546737515532
aF0.02149699807847704
aF0.02149699807847704
aF0.006401401529447993
aF0.006401401529447993
aF0.008065123395172544
aF0.008065123395172544
aF0.004453610330756515
aF0.004453610330756515
aF0.0019690238783820328
aF0.0019690238783820328
aF0.01399694799857225
aF0.01399694799857225
aF0.00487665500436338
aF0.00487665500436338
aF0.002399563773469239
aF0.002399563773469239
aF0.0006600590910987339
aF0.0006600590910987339
aF0.0003124461999004692
aF0.0003124461999004692
aF0.008338634280311737
aF0.008338634280311737
aF0.0031490749579647817
aF0.0031490749579647817
aF0.006804334132460142
aF0.006804334132460142
aF0.00802241113186052
aF0.00802241113186052
aF0.008503070961837758
aF0.008503070961837758
aF0.004831672041532931
aF0.004831672041532931
aF0.0016809223093816337
aF0.0016809223093816337
aF0.0017201435893875456
aF0.0017201435893875456
aF0.0044167527880364255
aF0.0044167527880364255
aF0.007573161181801473
aF0.007573161181801473
aF0.0008963202887841857
aF0.0008963202887841857
aF0.0051861569545766095
aF0.0051861569545766095
aF0.0038680829617264226
aF0.0038680829617264226
aF0.009520280517993791
aF0.009520280517993791
aF0.0029372962478004154
aF0.0029372962478004154
aF0.004219786707617655
aF0.004219786707617655
aF0.0029019479503743046
aF0.0029019479503743046
aF0.013896044669557427
aF0.013896044669557427
aF0.0008468366186858933
aF0.0008468366186858933
aF0.008339132240416016
aF0.008339132240416016
aF0.0010238857448003776
aF0.0010238857448003776
aF0.0017762582768476524
aF0.0017762582768476524
aF0.0012831184736261173
aF0.0012831184736261173
aF0.01244217010747051
aF0.01244217010747051
aF0.00029493115687224963
aF0.00029493115687224963
aF0.004020951161925958
aF0.004020951161925958
aF0.0055877073234443944
aF0.0055877073234443944
aF0.014738191880685758
aF0.014738191880685758
aF0.0019329610333468025
aF0.0019329610333468025
aF0.012640118997810087
aF0.012640118997810087
aF0.011192049408932554
aF0.011192049408932554
aF0.005734425914824332
aF0.005734425914824332
aF0.005099959238544428
aF0.005099959238544428
aF0.016221840535740207
aF0.016221840535740207
aF0.004442589252989454
aF0.004442589252989454
aF0.012501328532160967
aF0.012501328532160967
aF0.023572286381868958
aF0.023572286381868958
aF0.01066128246645559
aF0.01066128246645559
aF0.009696519486319282
aF0.009696519486319282
aF0.00022455227518216147
aF0.00022455227518216147
aF0.0034518376202213384
aF0.0034518376202213384
aF0.001419104879752715
aF0.001419104879752715
aF0.007629338420839091
aF0.007629338420839091
aF0.014118171753439821
aF0.014118171753439821
aF0.0032673201692512174
aF0.0032673201692512174
aF0.00605002100935673
aF0.00605002100935673
aF0.002785295002926928
aF0.002785295002926928
aF0.0035503437785438957
aF0.0035503437785438957
aF0.004047896744175592
aF0.004047896744175592
aF0.004852626791812127
aF0.004852626791812127
aF0.020289650778558637
aF0.020289650778558637
aF0.00970137928254973
aF0.00970137928254973
aF0.010635804945064223
aF0.010635804945064223
aF0.009398983185764953
aF0.009398983185764953
aF0.003757576379663697
aF0.003757576379663697
aF0.0050628526602435955
aF0.0050628526602435955
aF0.0006877863368403581
aF0.0006877863368403581
aF0.0071057580966791805
aF0.0017207293057915005
aF0.0017207293057915005
aF0.01215421296181467
aF0.01215421296181467
aF0.006959645137526345
aF0.006959645137526345
aF0.007955247498562343
aF0.007955247498562343
aF0.0029563689215143223
aF0.0029563689215143223
aF0.00880373532643922
aF0.00880373532643922
aF0.020667631461989258
aF0.020667631461989258
aF0.010841161267139358
aF0.010841161267139358
aF0.0012853480445184755
aF0.0012853480445184755
aF0.012146922164823111
aF0.012146922164823111
aF0.006932598010042659
aF0.006932598010042659
aF0.012955651702009612
aF0.012955651702009612
aF0.020404313890074088
aF0.0031020534002650013
aF0.0031020534002650013
aF0.002100121885893268
aF0.002100121885893268
aF0.01192132015784937
aF0.01192132015784937
aF0.009991606713805001
aF0.009991606713805001
aF0.00962710694964046
aF0.00962710694964046
aF0.009670113514620163
aF0.009670113514620163
aF0.0011745876257210292
aF0.0011745876257210292
aF0.0026844587234465173
aF0.0026844587234465173
aF0.004931666429398647
aF0.004931666429398647
aF0.007506768072004486
aF0.007506768072004486
aF0.00939613415902973
aF0.00939613415902973
aF0.0167215058294204
aF0.0167215058294204
aF0.01998215272807297
aF0.01998215272807297
aF0.01596082395648345
aF0.01596082395648345
aF0.003388440359023897
aF0.003388440359023897
aF0.0113851088763392
aF0.008457090440760954
aF0.008457090440760954
aF0.01872985443652726
aF0.01872985443652726
aF0.014025200130313078
aF0.014025200130313078
aF0.0009976785265980678
aF0.0009976785265980678
aF0.003736092898301966
aF0.003736092898301966
aF0.009221942844704895
aF0.009221942844704895
aF0.01236469834027805
aF0.01236469834027805
aF0.0011897716708697981
aF0.0011897716708697981
aF0.006379166753517554
aF0.006379166753517554
aF0.0016878132275058406
aF0.0016878132275058406
aF0.006124938078932883
aF0.006124938078932883
aF0.005501773452396036
aF0.005501773452396036
aF0.0015938795769682155
aF0.0015938795769682155
aF0.0031036445950518355
aF0.0031036445950518355
aF0.018961789413155235
aF0.018961789413155235
aF0.001036304874456137
aF0.001036304874456137
aF0.014903447277471263
aF0.014903447277471263
aF0.0005231696314213655
aF0.0005231696314213655
aF5.620470268078183e-06
aF5.620470268078183e-06
aF0.0038404587083148297
aF0.0038404587083148297
aF0.002169721633131735
aF0.002169721633131735
aF0.009753714898014493
aF0.009753714898014493
aF0.005869515242798018
aF0.005869515242798018
aF0.002781589926463565
aF0.002781589926463565
aF0.001098103197387792
aF0.001098103197387792
aF0.004540633929381742
aF0.004540633929381742
aF0.009759219384577434
aF0.009759219384577434
aF0.002217516610043243
aF0.002217516610043243
aF0.009219411630553951
aF0.009219411630553951
aF0.004317816313569993
aF0.004317816313569993
aF0.011977716215609458
aF0.011977716215609458
aF0.004867768694838641
aF0.004867768694838641
aF0.017268776707283367
aF0.017268776707283367
aF0.0018524248038666224
aF0.0018524248038666224
aF0.013328789799108778
aF0.013328789799108778
aF0.008035704808930937
aF0.008035704808930937
aF0.008351129465360513
aF0.008351129465360513
aF0.0074439928705149795
aF0.0074439928705149795
aF0.0024781690410969064
aF0.0024781690410969064
aF0.011281264324602212
aF0.011281264324602212
aF0.0019829973763619614
aF0.0019829973763619614
aF0.0016785937947891396
aF0.0016785937947891396
aF0.0011903892182844515
aF0.0011903892182844515
aF0.0006501423399940763
aF0.0006501423399940763
aF0.0038024840717799943
aF0.001025670243358557
aF0.001025670243358557
aF0.012086707824430297
aF0.012086707824430297
aF0.004571482182936629
aF0.004571482182936629
aF0.003907819082587241
aF0.003907819082587241
aF0.013987720030885704
aF0.013987720030885704
aF0.0013384832705113957
aF0.0013384832705113957
aF0.002624222215236054
aF0.002624222215236054
aF0.008509121038539355
aF0.008509121038539355
aF0.011590174461630744
aF0.011590174461630744
aF0.009563285367724562
aF0.009563285367724562
aF0.003401944399119485
aF0.003401944399119485
aF0.01848828705414796
aF0.01848828705414796
aF0.008238562026480769
aF0.008238562026480769
aF0.020490809991130517
aF0.020490809991130517
aF0.021744586308463813
aF0.021744586308463813
aF0.015009855984704161
aF0.015009855984704161
aF0.0006902270430855882
aF0.0006902270430855882
aF0.0026453719876736734
aF0.0026453719876736734
aF0.008863557364924378
aF0.008863557364924378
aF0.014465583076680007
aF0.014465583076680007
aF0.003856163117775406
aF0.003856163117775406
aF0.006029291038512352
aF0.006029291038512352
aF0.00702257942705826
aF0.00702257942705826
aF0.0189322648054734
aF0.0189322648054734
aF0.0018468020813308303
aF0.0018468020813308303
aF0.011402982178934172
aF0.011402982178934172
aF0.013738441704387155
aF0.013738441704387155
aF0.0022650704736060893
aF0.004531757053530074
aF0.004531757053530074
aF0.0010670508342100306
aF0.0010670508342100306
aF0.009305659632898422
aF0.009305659632898422
aF0.010628562957465238
aF0.010628562957465238
aF0.002060875257411065
aF0.002060875257411065
aF0.01754612040036831
aF0.01754612040036831
aF0.008187326350228731
aF0.008187326350228731
aF0.007463839488668349
aF0.007463839488668349
aF0.008506372501183256
aF0.008506372501183256
aF0.005349729785869802
aF0.005349729785869802
aF0.00880019797046302
aF0.00880019797046302
aF0.042671188895013416
aF0.042671188895013416
aF0.0019766298923359826
aF0.0019766298923359826
aF0.02684295119394502
aF0.02684295119394502
aF0.0033674257803458715
aF0.0033674257803458715
aF0.009892408432358162
aF0.009892408432358162
aF0.0032926605381853476
aF0.0032926605381853476
aF0.001657725780420587
aF0.001657725780420587
aF0.0015851872159946406
aF0.0015851872159946406
aF0.007236836872890464
aF0.007236836872890464
aF0.0058370534310523275
aF0.0058370534310523275
aF0.017204876379516138
aF0.017204876379516138
aF0.002501584567699094
aF0.002501584567699094
aF0.007780384087536481
aF0.007780384087536481
aF0.011846651875131066
aF0.011846651875131066
aF0.00592535717443729
aF0.00592535717443729
aF0.005500198348848473
aF0.005500198348848473
aF0.0034034472105703775
aF0.0034034472105703775
aF0.0005768126397166423
aF0.0005768126397166423
aF0.018061713924831274
aF0.018061713924831274
aF0.00396175761430377
aF0.00396175761430377
aF0.021704880035919877
aF0.021704880035919877
aF0.00151000869983524
aF0.00151000869983524
aF0.008355178109190895
aF0.008355178109190895
aF0.010335067277144724
aF0.010335067277144724
aF0.009219106739949716
aF0.009219106739949716
aF0.003267784842788191
aF0.003267784842788191
aF0.021382451264029212
aF0.021382451264029212
aF0.01332463769851032
aF0.01332463769851032
aF0.02063940192719641
aF0.02063940192719641
aF0.0002500266465879648
aF0.0002500266465879648
aF0.00505158962225694
aF0.00505158962225694
aF0.0012580754622087199
aF0.0012580754622087199
aF0.010912243301312427
aF0.010912243301312427
aF0.010326940014145133
aF0.010326940014145133
aF0.0036340909105940134
aF0.0036340909105940134
aF0.0012262784768982602
aF0.0058319883175824185
aF0.0058319883175824185
aF0.027309316029337716
aF0.027309316029337716
aF0.004650405467695615
aF0.004650405467695615
aF0.008439452009413982
aF0.008439452009413982
aF0.009753683004675434
aF0.009753683004675434
aF0.012777774384156346
aF0.012777774384156346
aF0.021367578515076476
aF0.021367578515076476
aF0.002182772796522213
aF0.002182772796522213
aF0.029661682768367056
aF0.029661682768367056
aF0.0012983800822203879
aF0.0012983800822203879
aF0.005983365238900495
aF0.005983365238900495
aF0.011929632623039288
aF0.011929632623039288
aF0.008558027995683996
aF0.008558027995683996
aF0.004192926369515059
aF0.004192926369515059
aF0.010026856290309591
aF0.010026856290309591
aF0.016650739003985938
aF0.016650739003985938
aF0.011457232670126874
aF0.011457232670126874
aF0.011081274853236288
aF0.011081274853236288
aF0.014794521768381749
aF0.014794521768381749
aF0.002823626320993891
aF0.002823626320993891
aF0.0034203315391827514
aF0.0034203315391827514
aF0.007461977942892683
aF0.007461977942892683
aF0.014444731661926322
aF0.014444731661926322
aF0.001362405917444523
aF0.001362405917444523
aF0.005600929402040708
aF0.005600929402040708
aF0.007841740824175563
aF0.007841740824175563
aF0.0006808209987692557
aF0.0006808209987692557
aF0.023728643888889095
aF0.023728643888889095
aF0.006130503355895131
aF0.006130503355895131
aF0.017088803907898447
aF0.017088803907898447
aF0.014823124420494299
aF0.014823124420494299
aF0.00484977455495335
aF0.00484977455495335
aF0.0012242663455844024
aF0.0012242663455844024
aF0.0022443124069889994
aF0.0022443124069889994
aF0.021514931246306015
aF0.021514931246306015
aF0.009191862258358427
aF0.009191862258358427
aF0.01752641244468726
aF0.01752641244468726
aF0.011888860172237841
aF0.011888860172237841
aF0.003924111105719461
aF0.003924111105719461
aF0.0018785237135934606
aF0.001682512580368983
aF0.001682512580368983
aF0.0012074954579076667
aF0.0009589958418840004
aF0.0009589958418840004
aF0.004859964766743512
aF0.004859964766743512
aF0.011657188514984176
aF0.011657188514984176
aF0.010587993060529932
aF0.010587993060529932
aF0.00233531292842832
aF0.00233531292842832
aF0.009878748897154942
aF0.009878748897154942
aF0.016398300565796477
aF0.016398300565796477
aF0.008843986612513581
aF0.008843986612513581
aF0.013273087819319636
aF0.013273087819319636
aF0.022371088413834762
aF0.022371088413834762
aF0.0033031909637037814
aF0.0033031909637037814
aF0.015465414884625729
aF0.015465414884625729
aF0.0018451982760996084
aF0.0018451982760996084
aF0.009155729358693998
aF0.009155729358693998
aF0.011239674868537842
aF0.011239674868537842
aF0.010174439669379667
aF0.010174439669379667
aF0.010735628528372185
aF0.010735628528372185
aF0.0026322540210837876
aF0.0026322540210837876
aF0.008210062920274916
aF0.008210062920274916
aF0.010280910874765665
aF0.010280910874765665
aF0.013189487445451098
aF0.013189487445451098
aF0.006489297207963074
aF0.006489297207963074
aF0.01198848839237494
aF0.01198848839237494
aF0.025348530159144924
aF0.025348530159144924
aF0.0015195106473383088
aF0.007404073149759374
aF0.007404073149759374
aF0.012189156384739705
aF0.012189156384739705
aF0.015836676374992947
aF0.015836676374992947
aF0.007043402242912352
aF0.007043402242912352
aF0.008079605575728684
aF0.008079605575728684
aF0.004997423917589145
aF0.004997423917589145
aF0.0035148206030763056
aF0.0035148206030763056
aF0.01623410920845209
aF0.01623410920845209
aF0.015409857880328205
aF0.015409857880328205
aF0.0030392987505390577
aF0.0030392987505390577
aF0.019747554936984203
aF0.019747554936984203
aF0.00011506426896338072
aF0.00011506426896338072
aF0.008683126222780843
aF0.008683126222780843
aF0.004041426727467828
aF0.004041426727467828
aF0.02542731589070418
aF0.02542731589070418
aF0.00706385007714856
aF0.00706385007714856
aF0.011106911894004529
aF0.011106911894004529
aF0.024862425020950676
aF0.024862425020950676
aF0.004548690914717437
aF0.004548690914717437
aF0.0028145753812421946
aF0.0028145753812421946
aF0.008142916401447105
aF0.008142916401447105
aF0.006596066446364716
aF0.006596066446364716
aF0.0021057287358430344
aF0.0021057287358430344
aF0.016310914299667897
aF0.016310914299667897
aF0.011058252715419103
aF0.011058252715419103
aF0.011905243260019445
aF0.011905243260019445
aF0.018298498498687733
aF0.018298498498687733
aF0.03139876507489432
aF0.03139876507489432
aF0.0075205606432497
aF0.0075205606432497
aF0.009240892752978078
aF0.009240892752978078
aF0.013011742421035376
aF0.013011742421035376
aF0.0056790691604717775
aF0.015691330450017013
aF0.015691330450017013
aF0.00984928072070224
aF0.00984928072070224
aF0.004015275858846626
aF0.004015275858846626
aF0.00927531665931895
aF0.00927531665931895
aF0.006322318269783364
aF0.006322318269783364
aF0.001966290296078603
aF0.001966290296078603
aF0.0038655624595829085
aF0.0038655624595829085
aF0.040394555590654274
aF0.040394555590654274
aF0.021688407707634992
aF0.021688407707634992
aF0.020694628827313592
aF0.020694628827313592
aF0.014233515033989088
aF0.014233515033989088
aF0.006610812752520028
aF0.006610812752520028
aF7.546208042031622e-05
aF7.546208042031622e-05
aF0.00998941171904895
aF0.00998941171904895
aF0.0033640305147653723
aF0.0033640305147653723
aF0.00610849503900587
aF0.00610849503900587
aF0.013043501114733758
aF0.013043501114733758
aF0.00017309120379756983
aF0.00017309120379756983
aF0.0035540553104260447
aF0.0035540553104260447
aF0.023561652964848707
aF0.023561652964848707
aF0.024669999919676545
aF0.024669999919676545
aF0.002671818593789261
aF0.002671818593789261
aF0.015005569219323164
aF0.015005569219323164
aF0.025278968627444706
aF0.025278968627444706
aF0.01539010839897443
aF0.01539010839897443
aF0.003028254736967748
aF0.003028254736967748
aF0.0038323812329856687
aF0.0038323812329856687
aF0.006165953625546949
aF0.006165953625546949
aF0.018461668675839885
aF0.018461668675839885
aF0.00439672358042235
aF0.00439672358042235
aF0.01627861533395926
aF0.01627861533395926
aF0.004506539229368773
aF0.004506539229368773
aF0.018704809374424997
aF0.018704809374424997
aF0.009837665788734518
aF0.009837665788734518
aF0.019495532192973977
aF0.019495532192973977
aF0.006788352744087165
aF0.006788352744087165
aF0.004878448429474238
aF0.004878448429474238
aF0.0015768799052407298
aF0.0015768799052407298
aF0.006540475367428324
aF0.006540475367428324
aF0.010320008272228502
aF0.010320008272228502
aF0.012098532318038223
aF0.012098532318038223
aF0.02713009201745604
aF0.02713009201745604
aF0.0025342193730231665
aF0.0025342193730231665
aF0.01712147180987645
aF0.01712147180987645
aF0.005857681203827352
aF0.005857681203827352
aF0.02542217512838294
aF0.02542217512838294
aF0.00501239595773983
aF0.00501239595773983
aF0.010214546727554516
aF0.010214546727554516
aF0.006206631994217532
aF0.006206631994217532
aF0.02709282570246648
aF0.0028391475647301296
aF0.0028391475647301296
aF0.005213414219598716
aF0.005213414219598716
aF0.001066460532084661
aF0.001066460532084661
aF0.0011995670406022966
aF0.0011995670406022966
aF0.000314438406015348
aF0.000314438406015348
aF0.0073060191222178925
aF0.0073060191222178925
aF0.021450062093113457
aF0.021450062093113457
aF0.005444397701551885
aF0.005444397701551885
aF0.023300680619385124
aF0.023300680619385124
aF0.006060026044352225
aF0.006060026044352225
aF0.01012551324125815
aF0.01012551324125815
aF0.023483481031603692
aF0.023483481031603692
aF0.03397818662271035
aF0.03397818662271035
aF0.02075502974567449
aF0.02075502974567449
aF0.02661110835931422
aF0.02661110835931422
aF0.009505197239887042
aF0.009505197239887042
aF0.024455748418206767
aF0.024455748418206767
aF0.0069454987597963955
aF0.0069454987597963955
aF0.010809992337837788
aF0.010809992337837788
aF0.005978665255546559
aF0.005978665255546559
aF0.006334460255635265
aF0.006334460255635265
aF0.017988060136964593
aF0.017988060136964593
aF0.010624366259984013
aF0.010624366259984013
aF0.00717709002336563
aF0.00717709002336563
aF0.002161132172485556
aF0.002161132172485556
aF0.006382909874378007
aF0.006382909874378007
aF0.00878074106018353
aF0.00878074106018353
aF0.007033902912912769
aF0.007033902912912769
aF0.0010895573003145908
aF0.0010895573003145908
aF0.010002415631642302
aF0.010002415631642302
aF0.013865210714628805
aF0.013865210714628805
aF0.0008491318445668827
aF0.0008491318445668827
aF0.01613438383443607
aF0.01613438383443607
aF0.012709403056991628
aF0.012709403056991628
aF0.01854168485839515
aF0.01854168485839515
aF0.0013479800034125957
aF0.0013479800034125957
aF0.007497233046978952
aF0.007497233046978952
aF0.01770179013343737
aF0.01770179013343737
aF0.010312813947757555
aF0.010312813947757555
aF0.01728770043724924
aF0.01728770043724924
aF0.024203957186362198
aF0.024203957186362198
aF0.019486711132403006
aF0.019486711132403006
aF0.006389956593225604
aF0.006389956593225604
aF0.017527468594002775
aF0.017527468594002775
aF0.01212608873200416
aF0.01212608873200416
aF0.0277197178880163
aF0.0277197178880163
aF0.016070013800649794
aF0.016070013800649794
aF0.01947613850403231
aF0.01947613850403231
aF0.014358130500675402
aF0.014358130500675402
aF0.022911434832017595
aF0.022911434832017595
aF0.004732883996332252
aF0.004732883996332252
aF0.006072049932336931
aF0.006072049932336931
aF0.006985365611937097
aF0.006985365611937097
aF0.015734117196949282
aF0.015734117196949282
aF0.0030074700342586197
aF0.0030074700342586197
aF0.019919738177903976
aF0.019919738177903976
aF0.014843100676460153
aF0.014843100676460153
aF0.0008997293452263091
aF0.0008997293452263091
aF0.015491405516089457
aF0.015491405516089457
aF0.008003175386054634
aF0.008003175386054634
aF0.01812203559514042
aF0.01812203559514042
aF0.007026233902216709
aF0.007026233902216709
aF0.0015037439599569296
aF0.0015037439599569296
aF0.012493997616250453
aF0.012493997616250453
aF0.013274202504098331
aF0.013274202504098331
aF0.023876804636637865
aF0.023876804636637865
aF0.021966062025477438
aF0.021966062025477438
aF0.0002632182974480699
aF0.0002632182974480699
aF0.004535665401404031
aF0.004535665401404031
aF0.01839972297131505
aF0.01839972297131505
aF0.009752314629360805
aF0.009752314629360805
aF0.007334979782185322
aF0.007334979782185322
aF0.004097598521196019
aF0.004097598521196019
aF0.01202629874014786
aF0.01202629874014786
aF0.018585319183830818
aF0.018585319183830818
aF0.023079702704248518
aF0.023079702704248518
aF0.006301753361823073
aF0.006301753361823073
aF0.00499298031644676
aF0.00499298031644676
aF0.02141811999618948
aF0.02141811999618948
aF0.006241832020318445
aF0.006241832020318445
aF0.013475483004603854
aF0.013475483004603854
aF0.02572193380855749
aF0.02572193380855749
aF0.00624206802185306
aF0.00624206802185306
aF0.009210206158626172
aF0.009210206158626172
aF0.014400618491989512
aF0.014400618491989512
aF0.00999079117935859
aF0.00999079117935859
aF0.007487232644911021
aF0.007487232644911021
aF0.0059611174992874015
aF0.0059611174992874015
aF0.017625701690417273
aF0.017625701690417273
aF0.0194415862531145
aF0.0194415862531145
aF0.00627210868408856
aF0.00627210868408856
aF0.0211511581911659
aF0.0211511581911659
aF0.009276913005411905
aF0.009276913005411905
aF0.017268579392619977
aF0.017268579392619977
aF0.007524486829753877
aF0.007524486829753877
aF0.0027475906844278333
aF0.0027475906844278333
aF0.010211714572156378
aF0.010211714572156378
aF0.027294747635548067
aF0.027294747635548067
aF0.015086955329936143
aF0.015086955329936143
aF0.03408568630756226
aF0.03408568630756226
aF0.008347543145158516
aF0.008347543145158516
aF0.024878389661549826
aF0.024878389661549826
aF0.013098052638547658
aF0.013098052638547658
aF0.0018324369081864052
aF0.0018324369081864052
aF0.016949792666703514
aF0.016949792666703514
aF0.008145079321034178
aF0.008145079321034178
aF0.002257304381247759
aF0.002257304381247759
aF0.005412027522076293
aF0.005412027522076293
aF0.013167030674531968
aF0.013167030674531968
aF0.0017227430302499188
aF0.0017227430302499188
aF0.01096845541775975
aF0.01096845541775975
aF0.012101286508617621
aF0.012101286508617621
aF0.002821016288471366
aF0.002821016288471366
aF0.00856392102905353
aF0.00856392102905353
aF0.00037161209160457853
aF0.00037161209160457853
aF0.01812219864653212
aF0.01812219864653212
aF0.027173559719019406
aF0.027173559719019406
aF0.030102953550022734
aF0.030102953550022734
aF0.0020870241126845707
aF0.0020870241126845707
aF0.028146899939957126
aF0.028146899939957126
aF0.015475323567229953
aF0.015475323567229953
aF0.026917462005127547
aF0.026917462005127547
aF0.01367641281911351
aF0.01367641281911351
aF0.009412570929168945
aF0.009412570929168945
aF0.00800196575261813
aF0.00800196575261813
aF0.004456883909934766
aF0.004456883909934766
aF0.04899237793380439
aF0.04899237793380439
aF0.024259062101446835
aF0.024259062101446835
aF0.010287989554538277
aF0.010287989554538277
aF0.005728773594731486
aF0.005728773594731486
aF0.03290668630381526
aF0.03290668630381526
aF0.022745523839921
aF0.022745523839921
aF0.006168761427037646
aF0.006168761427037646
aF0.007919610799104443
aF0.009480270869796938
aF0.009480270869796938
aF0.036493134683857884
aF0.036493134683857884
aF0.013256552278662065
aF0.013256552278662065
aF0.002232751857829432
aF0.002232751857829432
aF0.015226265045356296
aF0.015226265045356296
aF0.029745568240479015
aF0.029745568240479015
aF0.008213182945802519
aF0.008213182945802519
aF0.020109390322804774
aF0.020109390322804774
aF0.0060166152006967885
aF0.0060166152006967885
aF0.012346576945215468
aF0.012346576945215468
aF0.03191436820649602
aF0.03191436820649602
aF0.02887214591555028
aF0.02887214591555028
aF0.008218840666539688
aF0.008218840666539688
aF0.018944697723638153
aF0.018944697723638153
aF0.01742953858039622
aF0.01742953858039622
aF0.004556745708000576
aF0.004556745708000576
aF0.03675188921646602
aF0.03675188921646602
aF0.014053904263055719
aF0.014053904263055719
aF0.009729567009561763
aF0.009729567009561763
aF0.008323760547767359
aF0.008323760547767359
aF0.012377124751787795
aF0.012377124751787795
aF0.005253314899635151
aF0.025737375719049035
aF0.025737375719049035
aF0.047666861498529535
aF0.047666861498529535
aF0.021280331525224665
aF0.021280331525224665
aF0.011947038859839776
aF0.011947038859839776
aF0.002544248099653627
aF0.002544248099653627
aF0.013112197000973142
aF0.013112197000973142
aF0.011529339443566286
aF0.011529339443566286
aF0.010123121573802383
aF0.010123121573802383
aF0.00825038175020382
aF0.00825038175020382
aF0.010435469918515808
aF0.010435469918515808
aF0.013228465873449127
aF0.013228465873449127
aF0.02789547895539551
aF0.02789547895539551
aF0.007590096960059347
aF0.007590096960059347
aF0.016829615977041534
aF0.016829615977041534
aF0.0011577228171602706
aF0.0011577228171602706
aF0.03582149012249189
aF0.03582149012249189
aF0.003522565068206516
aF0.003522565068206516
aF0.012697349333718884
aF0.012697349333718884
aF0.022961577034852996
aF0.022961577034852996
aF0.03301578840443775
aF0.03301578840443775
aF0.00223264585507032
aF0.00223264585507032
aF0.0032164849374096546
aF0.0032164849374096546
aF0.014026467849281698
aF0.014026467849281698
aF0.018142713759957595
aF0.018142713759957595
aF0.013944754139977141
aF0.013944754139977141
aF0.0003145454217596323
aF0.0003145454217596323
aF0.0015974082776657641
aF0.0015974082776657641
aF0.0012664290597892726
aF0.0012664290597892726
aF0.03115973467862869
aF0.03115973467862869
aF0.009772266552095671
aF0.008535564910979256
aF0.008535564910979256
aF0.012677361267640812
aF0.012677361267640812
aF0.009260497283260167
aF0.009260497283260167
aF0.019581151115823592
aF0.019581151115823592
aF0.022361618205508648
aF0.022361618205508648
aF0.00781997991131891
aF0.00781997991131891
aF0.0034757339903908635
aF0.0034757339903908635
aF0.008984720658970127
aF0.008984720658970127
aF0.006549846915630011
aF0.006549846915630011
aF0.004593149079272331
aF0.004593149079272331
aF0.024286671003042805
aF0.024286671003042805
aF0.014238859982165382
aF0.014238859982165382
aF0.007246766470289365
aF0.007246766470289365
aF0.02806755436778853
aF0.02806755436778853
aF0.021556998213698636
aF0.021556998213698636
aF0.009916569037529393
aF0.009916569037529393
aF0.026165835202134197
aF0.026165835202134197
aF0.015887277741372736
aF0.015887277741372736
aF0.006367124432790454
aF0.006367124432790454
aF0.01722998108018448
aF0.01722998108018448
aF0.002875685275802984
aF0.002875685275802984
aF0.02715719699246688
aF0.02715719699246688
aF0.0017545642383062464
aF0.0017545642383062464
aF0.01438424584998629
aF0.01438424584998629
aF0.00308787020669675
aF0.00308787020669675
aF0.01508749172547903
aF0.01508749172547903
aF0.013599132953556676
aF0.013599132953556676
aF0.011164831989689544
aF0.011164831989689544
aF0.015482614450030869
aF0.015482614450030869
aF0.01134550224894532
aF0.01134550224894532
aF0.008221045482713686
aF0.008221045482713686
aF0.0010424356919812446
aF0.0010424356919812446
aF0.005458850597957552
aF0.005458850597957552
aF0.009091643837031574
aF0.009091643837031574
aF0.00559066054955611
aF0.00559066054955611
aF0.01917108452404545
aF0.01917108452404545
aF0.006627994777659773
aF0.006627994777659773
aF0.005034037701810454
aF0.005034037701810454
aF0.012344298674054096
aF0.012344298674054096
aF0.03185352464672291
aF0.004336586132810982
aF0.004336586132810982
aF0.016716182136730432
aF0.016716182136730432
aF0.022247155282134296
aF0.022247155282134296
aF0.011248808167372717
aF0.011248808167372717
aF0.010909566138152686
aF0.010909566138152686
aF0.007800144580556491
aF0.007800144580556491
aF0.027152708099551427
aF0.027152708099551427
aF0.015817754173260982
aF0.015817754173260982
aF0.00513496084840864
aF0.00513496084840864
aF0.02728430491587389
aF0.02728430491587389
aF0.002641258032786614
aF0.002641258032786614
aF0.02013302768222494
aF0.02013302768222494
aF0.001525710643471973
aF0.001525710643471973
aF0.01172331523829426
aF0.01172331523829426
aF0.008241567787025809
aF0.008241567787025809
aF0.00911782901557466
aF0.00911782901557466
aF0.005434366974554058
aF0.005434366974554058
aF0.011707322420515852
aF0.011707322420515852
aF0.042062574238462797
aF0.042062574238462797
aF0.003834286467084951
aF0.003834286467084951
aF0.0038042226816730807
aF0.0038042226816730807
aF0.011101287537166082
aF0.011101287537166082
aF0.012738291277265262
aF0.012738291277265262
aF0.020390476811912736
aF0.020390476811912736
aF0.0038995541237241485
aF0.0038995541237241485
aF0.016674150553684878
aF0.016674150553684878
aF0.003755153706611977
aF0.003755153706611977
aF0.03468578956297041
aF0.03468578956297041
aF0.009942086300078453
aF0.009942086300078453
aF0.008901277701838557
aF0.008901277701838557
aF0.03703983330995365
aF0.03703983330995365
aF0.00534118083318128
aF0.00534118083318128
aF0.012732872155557146
aF0.012732872155557146
aF0.022276136985121056
aF0.022276136985121056
aF0.016337344018352316
aF0.016337344018352316
aF0.015871816048669465
aF0.015871816048669465
aF0.0029043329447894337
aF0.0029043329447894337
aF0.014489365322793513
aF0.014489365322793513
aF0.019253681402946272
aF0.019253681402946272
aF0.0016673735909660732
aF0.0016673735909660732
aF0.005940314171979296
aF0.005940314171979296
aF0.003717899628504444
aF0.003717899628504444
aF0.013845487738226313
aF0.013845487738226313
aF0.021312770351146235
aF0.021312770351146235
aF0.009681559257567094
aF0.009681559257567094
aF0.0013936989117271019
aF0.053405916092348876
aF0.053405916092348876
aF0.016190707458752007
aF0.016190707458752007
aF0.0005461807967483182
aF0.0005461807967483182
aF0.0033039176588794523
aF0.0033039176588794523
aF0.01445536942574798
aF0.01445536942574798
aF0.019865494147454043
aF0.019865494147454043
aF0.03775499065736999
aF0.03775499065736999
aF0.022823289217295917
aF0.022823289217295917
aF0.005593245644686265
aF0.005593245644686265
aF0.02610697522007369
aF0.02610697522007369
aF0.01078088526298856
aF0.01078088526298856
aF0.01590288484038241
aF0.01590288484038241
aF0.022873503833512998
aF0.02594244027279234
aF0.02594244027279234
aF0.02621545949254757
aF0.02621545949254757
aF0.0030828883789075436
aF0.0030828883789075436
aF0.026626782710340205
aF0.026626782710340205
aF0.009416029513286264
aF0.009416029513286264
aF0.017523798766768014
aF0.017523798766768014
aF0.013573879304026818
aF0.013573879304026818
aF0.006613698943513916
aF0.006613698943513916
aF0.0029994536468649995
aF0.0029994536468649995
aF0.0038169806775010065
aF0.0038169806775010065
aF0.01749260751288159
aF0.01749260751288159
aF0.008571946480701472
aF0.008571946480701472
aF0.005659861842912724
aF0.005659861842912724
aF0.009531592131941566
aF0.009531592131941566
aF0.02808684876832935
aF0.02808684876832935
aF0.014426087273333688
aF0.014426087273333688
aF0.0074375887912200515
aF0.0074375887912200515
aF0.0036560912854570063
aF0.0036560912854570063
aF0.001330965755443743
aF0.001330965755443743
aF0.03253174066542904
aF0.03253174066542904
aF0.006378677867908761
aF0.006378677867908761
aF0.015046945426108049
aF0.015046945426108049
aF0.012389299629617252
aF0.012389299629617252
aF0.03444694431947151
aF0.03444694431947151
aF0.02386661182200166
aF0.02386661182200166
aF0.00872896277119475
aF0.00872896277119475
aF0.05273654347757614
aF0.05273654347757614
aF0.006825243404358764
aF0.006825243404358764
aF0.019019937235684282
aF0.019019937235684282
aF0.004546532324132369
aF0.004546532324132369
aF0.023518170194234713
aF0.023518170194234713
aF0.01160207409461887
aF0.01160207409461887
aF0.017341578257754897
aF0.017341578257754897
aF0.03296929544596583
aF0.03296929544596583
aF0.04982139929837339
aF0.04982139929837339
aF0.020986367672287044
aF0.020986367672287044
aF0.0011865014477005218
aF0.0011865014477005218
aF0.00876275556345297
aF0.00876275556345297
aF0.016898847698589663
aF0.016898847698589663
aF0.02151155543968531
aF0.02151155543968531
aF0.0014948622718358089
aF0.0014948622718358089
aF0.008926130953867633
aF0.008926130953867633
aF0.018096981470934716
aF0.018096981470934716
aF0.016482911175093224
aF0.016482911175093224
aF0.017523377906354474
aF0.017523377906354474
aF0.02800827882193282
aF0.02800827882193282
aF0.017247681819819918
aF0.01862211210576608
aF0.01862211210576608
aF0.01464994830304056
aF0.01464994830304056
aF0.05006767018702373
aF0.05006767018702373
aF0.02579591368578363
aF0.02579591368578363
aF0.004160490641821104
aF0.004160490641821104
aF0.004360731865254883
aF0.004360731865254883
aF0.014827879729754396
aF0.014827879729754396
aF0.003333992452906073
aF0.003333992452906073
aF0.021346112741680107
aF0.021346112741680107
aF0.020761817186475857
aF0.020761817186475857
aF0.01563659317606412
aF0.01563659317606412
aF0.014914147640056687
aF0.014914147640056687
aF0.003927166461733954
aF0.003927166461733954
aF0.012422184068003425
aF0.012422184068003425
aF0.02070698178896461
aF0.02070698178896461
aF0.0010061515483282164
aF0.0010061515483282164
aF0.012553143080580389
aF0.012553143080580389
aF0.010948000779009395
aF0.010948000779009395
aF0.02000260218114384
aF0.02000260218114384
aF0.03383064858303779
aF0.03383064858303779
aF0.016985661394493715
aF0.016985661394493715
aF0.03351366839611972
aF0.03351366839611972
aF0.011192130724797175
aF0.011192130724797175
aF0.010328990495993992
aF0.010328990495993992
aF0.02339050475843998
aF0.02339050475843998
aF0.008111933155902806
aF0.008111933155902806
aF0.004217497617950401
aF0.004217497617950401
aF0.0034412746978678666
aF0.0034412746978678666
aF0.01502474458936613
aF0.01502474458936613
aF0.007228709550843062
aF0.007228709550843062
aF0.015304737899774797
aF0.015304737899774797
aF0.022925135498180028
aF0.022925135498180028
aF0.027949831142438014
aF0.027949831142438014
aF0.002617118583681372
aF0.002617118583681372
aF0.002025891935800192
aF0.002025891935800192
aF0.0045800009689441175
aF0.0045800009689441175
aF0.02369212915859277
aF0.02369212915859277
aF0.010778734899866216
aF0.010778734899866216
aF0.0048128966972335145
aF0.0048128966972335145
aF0.029896559123433742
aF0.029896559123433742
aF0.027415775517239564
aF0.012857426715270095
aF0.012857426715270095
aF0.003917428609856111
aF0.003917428609856111
aF0.010871754261587138
aF0.010871754261587138
aF0.024964176414563565
aF0.024964176414563565
aF0.005392968879187955
aF0.005392968879187955
aF0.04271747404491746
aF0.013944560258602762
aF0.013944560258602762
aF0.02025429435199385
aF0.02025429435199385
aF0.015531939974890233
aF0.015531939974890233
aF0.01634664636881536
aF0.01634664636881536
aF0.026020536831962548
aF0.026020536831962548
aF0.0018309299257544972
aF0.0018309299257544972
aF0.008840380039158269
aF0.008840380039158269
aF0.007862733463720049
aF0.007862733463720049
aF0.003923528679277449
aF0.003923528679277449
aF0.007479170381197482
aF0.007479170381197482
aF0.01779758266263599
aF0.01779758266263599
aF0.03683347356211826
aF0.03683347356211826
aF0.013519818905629269
aF0.013519818905629269
aF0.029234426063654357
aF0.029234426063654357
aF0.007151949843188926
aF0.007151949843188926
aF0.02760492188977346
aF0.02760492188977346
aF0.021271691198015193
aF0.021271691198015193
aF0.0030802741787502863
aF0.0030802741787502863
aF0.05843225804282526
aF0.05843225804282526
aF0.018829027215935858
aF0.018829027215935858
aF0.02060323576600053
aF0.02060323576600053
aF0.04198861052636211
aF0.04198861052636211
aF0.012020686682317823
aF0.012020686682317823
aF0.04589535120729421
aF0.04589535120729421
aF0.007000003758131457
aF0.007000003758131457
aF9.219694911470348e-06
aF9.219694911470348e-06
aF0.008914661308188953
aF0.008914661308188953
aF0.028656142124565936
aF0.028656142124565936
aF0.009209263865367565
aF0.009209263865367565
aF0.03965586682489451
aF0.03965586682489451
aF0.0228400599825799
aF0.03689354952265146
aF0.03689354952265146
aF0.060342325875907196
aF0.060342325875907196
aF0.011775380688050504
aF0.011775380688050504
aF0.04798238768031468
aF0.04798238768031468
aF0.0015068256834464954
aF0.0015068256834464954
aF0.031690099183568944
aF0.031690099183568944
aF0.005822658479208811
aF0.005822658479208811
aF0.014689285194275769
aF0.014689285194275769
aF0.03774188333052774
aF0.03774188333052774
aF0.025022203765011523
aF0.025022203765011523
aF0.027781286617495887
aF0.027781286617495887
aF0.01224503000038649
aF0.01224503000038649
aF0.01865780601391233
aF0.01865780601391233
aF0.06579434989098164
aF0.06579434989098164
aF0.03379865837200144
aF0.03379865837200144
aF0.014503644986972557
aF0.014503644986972557
aF0.01037151542219846
aF0.01037151542219846
aF0.0011496061723467604
aF0.0011496061723467604
aF0.01345348290437082
aF0.01345348290437082
aF0.00994325888593155
aF0.00994325888593155
aF0.0076846004825656886
aF0.0076846004825656886
aF0.029622313770785936
aF0.029622313770785936
aF0.018978737290863468
aF0.018978737290863468
aF0.047982706260380974
aF0.047982706260380974
aF0.001783264203190638
aF0.001783264203190638
aF0.0051328382553531985
aF0.004735676616762159
aF0.004735676616762159
aF0.01104427887670625
aF0.01104427887670625
aF0.004115182506536156
aF0.004115182506536156
aF0.013211577393626005
aF0.013211577393626005
aF0.07939649519863054
aF0.07939649519863054
aF0.018276011052281813
aF0.018276011052281813
aF0.08035547410132482
aF0.08035547410132482
aF0.021255614764507658
aF0.021255614764507658
aF0.025969902910499224
aF0.025969902910499224
aF0.008003663307916197
aF0.008003663307916197
aF0.03136401852004841
aF0.03136401852004841
aF0.003952627525245347
aF0.003952627525245347
aF0.00554436305871636
aF0.00554436305871636
aF0.010185852170165021
aF0.010185852170165021
aF0.02722224226241494
aF0.02722224226241494
aF0.0398010450258622
aF0.0398010450258622
aF0.0029613053845270695
aF0.0029613053845270695
aF0.028124365022222934
aF0.028124365022222934
aF0.03516624681687918
aF0.03516624681687918
aF0.07521447110504294
aF0.07521447110504294
aF0.004492440773672836
aF0.0005183707038651564
aF0.0005183707038651564
aF0.016905313547524458
aF0.016905313547524458
aF0.012863521804749221
aF0.012863521804749221
aF0.01284196577612666
aF0.01284196577612666
aF0.016812544687216192
aF0.016812544687216192
aF0.006386767632547526
aF0.006386767632547526
aF0.022025525200228147
aF0.022025525200228147
aF0.022038995236697032
aF0.022038995236697032
aF0.005553743818439977
aF0.005553743818439977
aF0.016938844786335713
aF0.016938844786335713
aF0.06979320338625372
aF0.06979320338625372
aF0.00012082061633098099
aF0.00012082061633098099
aF0.05788974011384178
aF0.05788974011384178
aF0.017023327258925483
aF0.0004071091604215697
aF0.0004071091604215697
aF0.047549700165574776
aF0.047549700165574776
aF0.00043283645148964485
aF0.00043283645148964485
aF0.006392156645085308
aF0.006392156645085308
aF0.014614082162437146
aF0.014614082162437146
aF0.023892863273848017
aF0.023892863273848017
aF0.0224084311820071
aF0.0224084311820071
aF0.06306819116662025
aF0.06306819116662025
aF0.0011971831667735974
aF0.0011971831667735974
aF0.017728176681420488
aF0.017728176681420488
aF0.021611862611697355
aF0.021611862611697355
aF0.03848171313420621
aF0.03848171313420621
aF0.022286271487894905
aF0.022286271487894905
aF0.015919342126234515
aF0.015919342126234515
aF0.04776005015183111
aF0.04776005015183111
aF0.007540400404105338
aF0.007540400404105338
aF0.0041297140221278434
aF0.0041297140221278434
aF0.0033922709370920318
aF0.0033922709370920318
aF0.009728473957184413
aF0.009728473957184413
aF0.013734952205030258
aF0.013734952205030258
aF0.06387486750464448
aF0.06387486750464448
aF0.023201698966580846
aF0.023201698966580846
aF0.006334575036819252
aF0.006334575036819252
aF0.013974067754762311
aF0.013974067754762311
aF0.0321337190794522
aF0.0321337190794522
aF0.03931542741812275
aF0.03931542741812275
aF0.06950468883997334
aF0.06950468883997334
aF0.07675447289404617
aF0.07675447289404617
aF0.04987784200093335
aF0.04987784200093335
aF0.03432416782172105
aF0.03432416782172105
aF0.009473898894870323
aF0.009473898894870323
aF0.02369580499581866
aF0.02369580499581866
aF0.026189829197782056
aF0.026189829197782056
aF0.019738948998564203
aF0.019738948998564203
aF0.00118179039888128
aF0.00118179039888128
aF0.012678330454338284
aF0.012678330454338284
aF0.020577300386784694
aF0.020577300386784694
aF0.030547463545263883
aF0.030547463545263883
aF0.002231834312920426
aF0.002231834312920426
aF0.020050406806531668
aF0.020050406806531668
aF0.0029402328155252954
aF0.0029402328155252954
aF0.05204956123226137
aF0.05204956123226137
aF0.013294892352896789
aF0.013294892352896789
aF0.014082923889073251
aF0.014082923889073251
aF0.029481000350997145
aF0.029481000350997145
aF0.055463324761757145
aF0.055463324761757145
aF0.018716019639147107
aF0.018716019639147107
aF0.034683578884298544
aF0.034683578884298544
aF0.04800271518911463
aF0.04800271518911463
aF0.07460765477692596
aF0.07460765477692596
aF0.017192719025595757
aF0.017192719025595757
aF0.01670544302687944
aF0.01670544302687944
aF0.02685679365357985
aF0.02685679365357985
aF0.03248982444917286
aF0.03248982444917286
aF0.05502250915297297
aF0.05502250915297297
aF0.025374173563575752
aF0.025374173563575752
aF0.006798606616740668
aF0.006798606616740668
aF0.007052605941882726
aF0.026159630608902768
aF0.026159630608902768
aF0.03853679099171964
aF0.03853679099171964
aF0.031988797149812745
aF0.031988797149812745
aF0.02272630764424172
aF0.02272630764424172
aF0.0029445740971462257
aF0.0029445740971462257
aF0.013004043550925402
aF0.013004043550925402
aF0.011339095519707408
aF0.011339095519707408
aF0.035873699103735494
aF0.035873699103735494
aF0.0017820373807858707
aF0.0017820373807858707
aF0.02392925246901311
aF0.02392925246901311
aF0.03052013801858322
aF0.03052013801858322
aF0.06194543078177464
aF0.06194543078177464
aF0.06510488096141483
aF0.06510488096141483
aF0.0071275739443942615
aF0.0071275739443942615
aF0.022992962024600463
aF0.022992962024600463
aF0.11918391839027356
aF0.11918391839027356
aF0.013484775585430975
aF0.013484775585430975
aF0.02130185750437302
aF0.02130185750437302
aF0.0012800804822848126
aF0.0012800804822848126
aF0.01335183351517176
aF0.01335183351517176
aF0.0011992338307849418
aF0.0011992338307849418
aF0.14641456242411693
aF0.14641456242411693
aF0.02729789795235449
aF0.0024039412593026754
aF0.0024039412593026754
aF0.12875348712984752
aF0.12875348712984752
aF0.01830178446503334
aF0.01830178446503334
aF0.0428248200272755
aF0.0428248200272755
aF0.0013636373770097201
aF0.0013636373770097201
aF0.06710409752861186
aF0.06710409752861186
aF0.002599224374804637
aF0.002599224374804637
aF0.020058134120267038
aF0.020058134120267038
aF0.009592845907172978
aF0.009592845907172978
aF0.03344134840655849
aF0.03344134840655849
aF0.0035142888063662762
aF0.0035142888063662762
aF0.04100805973348759
aF0.04100805973348759
aF0.0488787733765021
aF0.0488787733765021
aF0.01719907903698429
aF0.01719907903698429
aF0.008824199832169496
aF0.008824199832169496
aF0.0005785048434611654
aF0.0005785048434611654
aF0.013003083088357969
aF0.013003083088357969
aF0.047615727668189965
aF0.047615727668189965
aF0.014198812394901955
aF0.014198812394901955
aF0.03535691887034897
aF0.02192996791874926
aF0.02192996791874926
aF0.08905520231719612
aF0.08905520231719612
aF0.1339946800551752
aF0.1339946800551752
aF0.10629165554296335
aF0.10629165554296335
aF0.03971403931227375
aF0.03971403931227375
aF0.020813530382420856
aF0.020813530382420856
aF0.03471173998128038
aF0.03471173998128038
aF0.001078643900054496
aF0.023513564902565502
aF0.023513564902565502
aF0.01832598352755474
aF0.01832598352755474
aF0.03982887163276949
aF0.03982887163276949
aF0.04087376621240005
aF0.006028284152010006
aF0.006028284152010006
aF0.04688685214573776
aF0.04688685214573776
aF0.021107677266745565
aF0.021107677266745565
aF0.017384505970405084
aF0.017384505970405084
aF0.04725622738546268
aF0.04725622738546268
aF0.024279863578635277
aF0.024279863578635277
aF0.012839902209938229
aF0.012839902209938229
aF0.013870918372988227
aF0.013870918372988227
aF0.16221768304662548
aF0.16221768304662548
aF0.11507924724490982
aF0.0015932110182448737
aF0.0015932110182448737
aF0.016341081135886365
aF0.016341081135886365
aF0.0009254344201425524
aF0.0009254344201425524
aF0.026842437026064984
aF0.026842437026064984
aF0.12268366391696078
aF0.12268366391696078
aF0.037073219948575556
aF0.037073219948575556
aF0.00016776300209442235
aF0.00016776300209442235
aF0.0014172275052196754
aF0.0014172275052196754
aF0.1811481316575386
aF0.1811481316575386
aF0.024914732694969265
aF0.024914732694969265
aF0.0350012247580325
aF0.0350012247580325
aF0.0811631614720485
aF0.0811631614720485
aF0.03189946415843576
aF0.03189946415843576
aF0.021984160151845344
aF0.021984160151845344
aF0.0018322789443426793
aF0.0018322789443426793
aF0.017206022782011773
aF0.017206022782011773
aF0.06625157687529593
aF0.06625157687529593
aF0.18076781731668548
aF0.004982629603700722
aF0.004982629603700722
aF0.002856202163111097
aF0.002856202163111097
aF0.024956306102920024
aF0.024956306102920024
aF0.002657275303955202
aF0.002472633468853882
aF0.002472633468853882
aF0.03749764528460115
aF0.03749764528460115
aF0.00781446954477351
aF0.00781446954477351
aF0.015690272922023456
aF0.015690272922023456
aF0.07007022037839808
aF0.07007022037839808
aF0.06057493921194494
aF0.06057493921194494
aF0.031038056379143312
aF0.031038056379143312
aF0.011622500795972636
aF0.011622500795972636
aF0.0480694226819689
aF0.0480694226819689
aF0.014853822628962914
aF0.014853822628962914
aF0.03383362679102708
aF0.03383362679102708
aF0.023501412577382794
aF0.023501412577382794
aF0.004195896771418534
aF0.004195896771418534
aF0.003474199256777982
aF0.003474199256777982
aF0.03142028950628251
aF0.03142028950628251
aF0.06939729751568786
aF0.06939729751568786
aF0.026726661425886998
aF0.026726661425886998
aF0.014730775352793843
aF0.037291544714997536
aF0.037291544714997536
aF0.05153397158000376
aF0.05153397158000376
aF0.018205383636491754
aF0.018205383636491754
aF0.07152223844512329
aF0.07152223844512329
aF0.041884918116843306
aF0.041884918116843306
aF0.05732223263675531
aF0.05732223263675531
aF0.005817479960578195
aF0.005817479960578195
aF0.01674412923916968
aF0.01674412923916968
aF0.020195759697444655
aF0.020195759697444655
aF0.07080501556220387
aF0.07080501556220387
aF0.02033654703653859
aF0.02033654703653859
aF0.0468743848490337
aF0.0468743848490337
aF0.017255316580672895
aF0.017255316580672895
aF0.00875805930808109
aF0.00875805930808109
aF0.15576388126794852
aF0.04371454423993811
aF0.04371454423993811
aF0.03721764651544451
aF0.03721764651544451
aF0.07830997422779051
aF0.07830997422779051
aF0.045847029560271514
aF0.045847029560271514
aF0.036326353762453314
aF0.036326353762453314
aF0.04418827704135785
aF0.04418827704135785
aF0.04863384099666058
aF0.04863384099666058
aF0.020299723729398814
aF0.020299723729398814
aF0.08122513847057974
aF0.08122513847057974
aF0.019683291288952312
aF0.019683291288952312
aF0.10005638746290038
aF0.10005638746290038
aF0.024385708851602614
aF0.024385708851602614
aF0.044710453298353166
aF0.044710453298353166
aF0.09115866487613049
aF0.09115866487613049
aF0.06298652144718221
aF0.0864037568367212
aF0.0719640604705738
aF0.0719640604705738
aF0.029160417928529046
aF0.029160417928529046
aF0.03113478112120304
aF0.03113478112120304
aF0.08611466342431923
aF0.08611466342431923
aF0.06558211894126745
aF0.06558211894126745
aF0.01696567152607106
aF0.01696567152607106
aF0.061615105282839484
aF0.061615105282839484
aF0.02208823964723051
aF0.02208823964723051
aF0.03942932993458077
aF0.03942932993458077
aF0.04734731875788103
aF0.04734731875788103
aF0.0559616069751225
aF0.0559616069751225
aF0.08416290325264189
aF0.08416290325264189
aF0.01208537532004068
aF0.01208537532004068
aF0.034411994723021526
aF0.06520738413763842
aF0.06520738413763842
aF0.021595682222509925
aF0.021595682222509925
aF0.07964849419354626
aF0.07964849419354626
aF0.011986165959348214
aF0.03043600233457372
aF0.05695620179978383
aF0.05695620179978383
aF0.1208955195441756
aF0.1208955195441756
aF0.09597210721024997
aF0.09597210721024997
aF0.07289141067060946
aF0.07289141067060946
aF0.03245976481064791
aF0.03245976481064791
aF0.030613032335466646
aF0.030613032335466646
aF0.07757801292062616
aF0.07757801292062616
aF0.03547247738167529
aF0.03547247738167529
aF0.09596485693127337
aF0.036283980130798414
aF0.036283980130798414
aF0.0574826753977721
aF0.0574826753977721
aF0.06176666337544068
aF0.07412921435649122
aF0.07412921435649122
aF0.07381515286811742
aF0.07381515286811742
aF0.02220016246217161
aF0.02220016246217161
aF0.013248615260889171
aF0.013248615260889171
aF0.00965518073417059
aF0.00965518073417059
aF0.0346925411683784
aF0.008647333205412179
aF0.022182118393446797
aF0.022182118393446797
aF0.032270701135869696
aF0.032270701135869696
aF0.03988036130383611
aF0.03988036130383611
aF0.0002403081722015708
aF0.0002403081722015708
aF0.0028813937039963524
aF0.00039791667715593
aF0.0017948504851382867
aF0.007756426934914428
aF0.010720900778546393
aF0.010720900778546393
aF0.008373630527079247
aF0.008373630527079247
aF0.025054835897388477
aF0.025054835897388477
aF0.006239242331902764
aF0.006239242331902764
aF0.025684065843053654
aF0.025684065843053654
aF0.007973771042250728
aF0.007973771042250728
aF0.026092461658170064
aF0.030253653149727073
aF0.025126984579508214
aF0.025126984579508214
aF0.02874414277408485
aF0.02874414277408485
aF0.02448758977416442
aF0.02448758977416442
aF0.01889142773747781
aF0.01889142773747781
aF0.023018525501913596
aF0.023018525501913596
aF0.009968127087457519
aF0.009968127087457519
aF0.005512882285020268
aF0.005512882285020268
aF0.006971520273977666
aF0.006971520273977666
aF0.01662982128397158
aF0.01662982128397158
aF0.02212315628721607
aF0.02212315628721607
aF0.007905174471536401
aF0.007905174471536401
aF0.022892096971467314
aF0.022892096971467314
aF0.030209462017295147
aF0.030209462017295147
aF0.02787461471185508
aF0.02787461471185508
aF0.017766253624879602
aF0.017766253624879602
aF0.003596497794642956
aF0.003596497794642956
aF0.006709108949676847
aF0.006709108949676847
aF0.017514855938439933
aF0.017514855938439933
aF0.024002426992623466
aF0.024002426992623466
aF0.04750698237981086
aF0.011862411107763586
aF0.021582607245319265
aF0.021582607245319265
aF0.025255259809550568
aF0.025255259809550568
aF0.029789552791537544
aF0.029789552791537544
aF0.041237816748974414
aF0.024826289154893308
aF0.024826289154893308
aF0.019460988803078245
aF0.019460988803078245
aF0.009491488768541494
aF0.009491488768541494
aF0.002853261886181709
aF0.002853261886181709
aF0.029853649063020002
aF0.029853649063020002
aF0.007942617544481596
aF0.007942617544481596
aF0.003862163681315111
aF0.003862163681315111
aF0.027059665774414703
aF0.027059665774414703
aF0.0026984128389845896
aF0.0026984128389845896
aF0.018076787831799192
aF0.018076787831799192
aF0.0012920159618377582
aF0.0012920159618377582
aF0.0002567804921944654
aF0.0002567804921944654
aF0.007651564970619444
aF0.007651564970619444
aF0.013268523036992557
aF0.010726864977663314
aF0.010726864977663314
aF0.009042219424842034
aF0.009042219424842034
aF0.017311403649156096
aF0.017311403649156096
aF0.009881467015983796
aF0.00842097516790809
aF0.00842097516790809
aF0.003885476663135483
aF0.003885476663135483
aF0.0017519520891172017
aF0.0017519520891172017
aF0.02261468641740293
aF0.02261468641740293
aF0.019621833756410943
aF0.019621833756410943
aF0.005137914277309588
aF0.005137914277309588
aF0.007386895659672258
aF0.007386895659672258
aF0.0173155108694694
aF0.0173155108694694
aF0.0032906117992342015
aF0.0032906117992342015
aF0.005721865280089156
aF0.005721865280089156
aF0.015329643723806852
aF0.015329643723806852
aF0.005055700551228811
aF0.005055700551228811
aF0.03358841064916036
aF0.00629651540720883
aF0.00629651540720883
aF0.010877118288956706
aF0.010877118288956706
aF0.007485843652521958
aF0.007485843652521958
aF0.01465430936817197
aF0.01465430936817197
aF0.02257995208386375
aF0.02257995208386375
aF0.007925135200409134
aF0.007925135200409134
aF0.019107524973583045
aF0.019107524973583045
aF1.0666769571644021e-05
aF1.0666769571644021e-05
aF0.011965070938017311
aF0.011965070938017311
aF0.0019352203340986607
aF0.0019352203340986607
aF0.006724633067171675
aF0.006724633067171675
aF0.013051516970003183
aF0.013051516970003183
aF0.0040158546223336205
aF0.0040158546223336205
aF0.014388723468443792
aF0.014388723468443792
aF0.008915559000085086
aF0.008915559000085086
aF0.01566456192093474
aF0.020257905034135333
aF0.020257905034135333
aF0.004653608491027217
aF0.004653608491027217
aF0.008857802974732324
aF0.008857802974732324
aF0.014533940123860277
aF0.014533940123860277
aF0.004570632822598361
aF0.004570632822598361
aF0.0007372637833955637
aF0.0007372637833955637
aF0.01175116534533996
aF0.01175116534533996
aF0.007503772054399466
aF0.007503772054399466
aF0.013268863013690377
aF0.013268863013690377
aF0.00570546780858112
aF0.00570546780858112
aF0.010074630345423323
aF0.010074630345423323
aF0.00857895760106195
aF0.00857895760106195
aF0.009819225046363959
aF0.009819225046363959
aF0.019988616990085802
aF0.019988616990085802
aF4.762346248820895e-05
aF4.762346248820895e-05
aF0.0014515342426574176
aF0.0014515342426574176
aF0.014393207744102911
aF0.01614341002467698
aF0.01614341002467698
aF0.008245183840035022
aF0.008245183840035022
aF0.031223420700161816
aF0.018885660661359296
aF0.00445173344876249
aF0.00445173344876249
aF0.005884772677387835
aF0.005884772677387835
aF0.006922037982480101
aF0.006922037982480101
aF0.005099259623297457
aF0.005099259623297457
aF0.0005256642279753129
aF0.0005256642279753129
aF0.008421763969624884
aF0.008421763969624884
aF0.0006333667551368954
aF0.0006333667551368954
aF0.009220057858503253
aF0.009220057858503253
aF0.01057709710719708
aF0.01057709710719708
aF0.006571018712466149
aF0.006571018712466149
aF0.015250945503148499
aF0.015250945503148499
aF0.009529852616090247
aF0.009529852616090247
aF0.009575705053226807
aF0.009575705053226807
aF0.015551789426720761
aF0.015551789426720761
aF0.014297580601989485
aF0.014297580601989485
aF0.0011943426459428842
aF0.0011943426459428842
aF0.001537652158076418
aF0.0051453542379324485
aF0.013148905394985906
aF0.013148905394985906
aF0.016964955248754424
aF0.016964955248754424
aF0.019357885550144994
aF0.019357885550144994
aF0.015428059394722957
aF0.015428059394722957
aF0.02395705921047557
aF0.02395705921047557
aF0.015892735899969035
aF0.015892735899969035
aF0.008434880501458646
aF0.008434880501458646
aF0.02703498392763439
aF0.0004979029480594317
aF0.0004979029480594317
aF0.007970047073535219
aF0.007970047073535219
aF0.004244962877826447
aF0.004244962877826447
aF0.0023438312214382646
aF0.0023438312214382646
aF0.003982184140236047
aF0.003982184140236047
aF0.003942885948701311
aF0.003942885948701311
aF0.0005536792721502806
aF0.0005536792721502806
aF0.004052486264869896
aF0.004052486264869896
aF0.0004724740589371224
aF0.0004724740589371224
aF0.0002589495301604788
aF0.0002589495301604788
aF0.00013042222794569985
aF0.00013042222794569985
aF0.01391774786734328
aF0.0016822072797976133
aF0.0016822072797976133
aF0.0032852344585833694
aF0.0032852344585833694
aF0.007768296043417898
aF0.007768296043417898
aF0.007355678832498793
aF0.007355678832498793
aF0.005142910055994535
aF0.005142910055994535
aF0.0026113692136062938
aF0.0026113692136062938
aF0.015453934951733798
aF0.015453934951733798
aF0.000574394818596472
aF0.000574394818596472
aF0.011925270878581045
aF0.011925270878581045
aF0.011785712522211202
aF0.0019000045691177627
aF0.0019000045691177627
aF0.010503546780402002
aF0.010503546780402002
aF0.015917800783621535
aF0.015917800783621535
aF0.005747202535287271
aF0.005747202535287271
aF0.0005598759427069397
aF0.0005598759427069397
aF0.005553620394058629
aF4.562788869454081e-05
aF4.562788869454081e-05
aF0.0007545974416046909
aF0.0007545974416046909
aF0.007771541697656585
aF0.0014007427866501742
aF0.0014007427866501742
aF0.005493735597189854
aF0.01127453436678805
aF0.006134698945895338
aF0.006134698945895338
aF0.007050673795095217
aF0.007050673795095217
aF0.010792911202862581
aF0.010792911202862581
aF0.005558452934181749
aF0.005558452934181749
aF0.004038196122136929
aF0.004038196122136929
aF0.005357183636786645
aF0.00445538410993509
aF0.00445538410993509
aF0.010726754480490873
aF0.010726754480490873
aF0.006773983792633682
aF0.006773983792633682
aF0.005083805841054319
aF0.005083805841054319
aF0.0005127139592478074
aF0.0005127139592478074
aF0.0029597906158657385
aF0.0029597906158657385
aF0.0024068952743167542
aF0.0024068952743167542
aF0.004999945788829337
aF0.004999945788829337
aF0.002740184608393838
aF0.002740184608393838
aF0.0016818472213577923
aF0.0016818472213577923
aF0.008193960938496432
aF0.008193960938496432
aF0.0018308347186745328
aF0.0018308347186745328
aF0.00610986396629825
aF0.00610986396629825
aF0.004439552838049211
aF0.0031961965216130133
aF0.0037130081630120247
aF0.003783451619022093
aF0.0027106437395890094
aF0.0027106437395890094
aF0.0031135158754094783
aF0.0005666410193882202
aF7.884343865015413e-05
aF7.884343865015413e-05
aF0.00174022345797504
aF0.0017947407847627612
aF0.0017947407847627612
aF0.0006438551143650923
aF0.0006438551143650923
aF0.0018504418504226778
aF0.0019834318640742105
aF0.0004891573402901471
aF0.0004891573402901471
aF0.0019182780787124652
aF0.0019182780787124652
aF0.00045253186582333923
aF0.002239150419453731
aF0.002239150419453731
aF0.0022601858238674552
aF0.0022601858238674552
aF0.0010996758821034335
aF0.0010996758821034335
aF0.0005168204348863422
aF0.0005168204348863422
aF0.0002588941609738565
aF0.00041744056824140525
aF0.00041744056824140525
aF0.0002394143212390774
aF0.00021636058644847723
aF0.00021636058644847723
aF0.0009947223280763915
aF0.0009947223280763915
aF0.00033809533168595144
aF0.0006156219723323234
aF0.0006156219723323234
aF0.0006533386297777851
aF0.0006533386297777851
aF0.0007387550879593549
aF9.84526202036856e-05
aF9.84526202036856e-05
aF0.00021399628536015956
aF0.00021399628536015956
aF0.00026246187434641804
aF9.27266585523632e-05
aF9.27266585523632e-05
aF1.9961572794575494e-18
aF2.3510576315251306e-18
a.